(lp0
(lp1
Vjohn issacs
p2
aa(lp3
Vwilliam e. over
p4
aVwilliam e. oliver
p5
aVwilliam e. oliver mi
p6
aVwilliam oliver
p7
aa(lp8
Vjohn morgan
p9
aa(lp10
Vlydia mates
p11
aa(lp12
Vmary page
p13
aa(lp14
Vmiriam bonner
p15
aa(lp16
Vmeta r writer
p17
aa(lp18
Vben kocel
p19
aa(lp20
Vfrances itskowitz
p21
aa(lp22
Vjack stachel
p23
aa(lp24
Vmrs. harold franklin
p25
aa(lp26
Vanna taft
p27
aa(lp28
Vjerry mchale
p29
aa(lp30
Vmike yarman
p31
aa(lp32
Vrev. jack mcmichael
p33
aa(lp34
Vzara becker
p35
aa(lp36
Vteresa kalman
p37
aa(lp38
Vclaude lightfoot
p39
aa(lp40
Vralph smith
p41
aa(lp42
Varam attarian
p43
aa(lp44
Vneil hignian
p45
aa(lp46
Vpeter bent
p47
aa(lp48
Vmelva cook
p49
aa(lp50
Vharmon alexander
p51
aa(lp52
Vmildred flacks
p53
aa(lp54
Vjoe mcclosky
p55
aa(lp56
Vdonald n wheeler
p57
aa(lp58
Vphilip saba
p59
aa(lp60
Vbyron edwards
p61
aa(lp62
Vflorence covey
p63
aVflorence tobey
p64
aa(lp65
Vlevi johnson
p66
aa(lp67
Vmildred pollock
p68
aa(lp69
Vmurry wagner
p70
aa(lp71
Vsam telford
p72
aa(lp73
Vmason roberson
p74
aa(lp75
Vleonard lauderdale
p76
aa(lp77
Vgeorge pepper
p78
aa(lp79
Vgit perlman
p80
aa(lp81
Vmr. lusher
p82
aa(lp83
Vmrs. edward bar
p84
aa(lp85
Vfloyd mcdonnell
p86
aa(lp87
Vtom defazio
p88
aa(lp89
Vwillie newman
p90
aa(lp91
Vcharlie busk
p92
aa(lp93
Vned gorgolinski
p94
aa(lp95
Vharriet bouslog
p96
aa(lp97
Vjoseph melia
p98
aa(lp99
Vclarence davis
p100
aa(lp101
Vfrank martin
p102
aa(lp103
Vbarbara wooley
p104
aa(lp105
Veli jacobson
p106
aa(lp107
Vkatherine ripken
p108
aa(lp109
Vrobert rutman
p110
aa(lp111
Vnina oster
p112
aa(lp113
Vjoe lash
p114
aa(lp115
Veuenore abowitz
p116
aVellenore abowitz
p117
aa(lp118
Vwalter stempel
p119
aa(lp120
Vgeorge blake
p121
aa(lp122
Vmrs. nathan mar
p123
aa(lp124
Vcharlie white
p125
aa(lp126
Vlou harris
p127
aa(lp128
Vleroy tribbite
p129
aa(lp130
Vmr. seofield
p131
aa(lp132
Vben terry
p133
aa(lp134
Velizabeth grant
p135
aa(lp136
Veric dearnley
p137
aa(lp138
Vmilton lester
p139
aa(lp140
Vmartha lepowsky
p141
aa(lp142
Vwilford sherrington
p143
aa(lp144
Vjoe lynch
p145
aa(lp146
Vmrs. hugo beiswenger
p147
aa(lp148
Vben bengal
p149
aa(lp150
Vstanley nowak
p151
aa(lp152
Vgale. biberman
p153
aa(lp154
Vkatherine foreman
p155
aa(lp156
Vruth h. wellnian
p157
aa(lp158
Vhelen jacobson
p159
aa(lp160
Vmargaret wilson
p161
aa(lp162
Vedith landall
p163
aa(lp164
Vmilton casluier
p165
aa(lp166
Vann arbor
p167
aa(lp168
Vlee barrie
p169
aa(lp170
Vgladys liefchild
p171
aa(lp172
Vjoe. bentzenhoffer
p173
aa(lp174
Valdo sandretto
p175
aa(lp176
Vdr. perry
p177
aa(lp178
Vann delancey
p179
aa(lp180
Vcelia wilby
p181
aVcelia wilhy
p182
aa(lp183
Vmarvin bargeman
p184
aa(lp185
Vt. kratz
p186
aa(lp187
Vgale sondergaard
p188
aa(lp189
Vherb kalman
p190
aa(lp191
Vgus gustofson
p192
aa(lp193
Veddie fisher
p194
aVed fisher
p195
aa(lp196
Vcatherine hall
p197
aa(lp198
Vtom miller
p199
aa(lp200
Vlibby jacobson
p201
aa(lp202
Vleo ploetchl
p203
aa(lp204
Vanne ray frank
p205
aa(lp206
Vbertha bargeman
p207
aa(lp208
Vrandolph luke
p209
aa(lp210
Vgregor manoff
p211
aa(lp212
Vtom nabried
p213
aa(lp214
Vrobert gorham davis
p215
aa(lp216
Vsee lee
p217
aa(lp218
Vhelen gardner
p219
aa(lp220
Vgertrude purcell
p221
aa(lp222
Vsylvia siegel
p223
aa(lp224
Vsam sillen
p225
aVsamuel sillen
p226
aa(lp227
Vlillian lowenfels
p228
aa(lp229
Vsam kubin
p230
aa(lp231
Vwalter lowenfels
p232
aa(lp233
Vwilliam g soler
p234
aa(lp235
Vmrs. carl palmquist
p236
aa(lp237
Virene short
p238
aa(lp239
Vmarjorie manoff
p240
aa(lp241
Vestelle n thomas
p242
aa(lp243
Vbereniece baldwin
p244
aa(lp245
Vlionel stander
p246
aa(lp247
Vmrs. dave hilber
p248
aVmrs. david hilber
p249
aa(lp250
Vmarian shire
p251
aa(lp252
Vwilma persley
p253
aa(lp254
Vseth levine
p255
aa(lp256
Vnancy reeves
p257
aa(lp258
Veugene eagle
p259
aa(lp260
Vmrs. herbert biberman
p261
aVherbert biberman
p262
aa(lp263
Vcalvin batiste
p264
aa(lp265
Vbjorne halliug
p266
aa(lp267
Vj masee
p268
aa(lp269
Vbill crockett
p270
aa(lp271
Vgeorge will
p272
aVgeorge willner
p273
aa(lp274
Vrobert l. richards
p275
aVrobert richards
p276
aa(lp277
Vsam goodwin
p278
aa(lp279
Vtony s lucia
p280
aa(lp281
Vjoe balsis
p282
aa(lp283
Virving myer
p284
aa(lp285
Vedward brown
p286
aVedward barlow
p287
aa(lp288
Vedith macia
p289
aVdith macia
p290
aa(lp291
Vanna brickman
p292
aa(lp293
Vandy barrigan
p294
aa(lp295
Vleo t. orsage
p296
aa(lp297
Vjohn bevins
p298
aa(lp299
Vlester cole
p300
aVlester colei
p301
aa(lp302
Vviolet orr
p303
aa(lp304
Vginny lee
p305
aa(lp306
Vmurray borad
p307
aa(lp308
Vmildred benoff
p309
aa(lp310
Vdave hedley
p311
aa(lp312
Vdaniel mccombe
p313
aa(lp314
Vbetty arden
p315
aa(lp316
Vflo atkinson
p317
aa(lp318
Vgeorge mayberry
p319
aa(lp320
Vsondra gorney
p321
aa(lp322
Vfred moore
p323
aa(lp324
Vlauren taylor
p325
aa(lp326
Vviola b shore
p327
aa(lp328
Vsidney druckman
p329
aa(lp330
Vkelly douglas
p331
aa(lp332
Vhallie jonas
p333
aa(lp334
Vroy huggins
p335
aa(lp336
Veva pitcher
p337
aa(lp338
Vohio. as cokimbus
p339
aa(lp340
Vart rhodes
p341
aa(lp342
Vholland roberts
p343
aVholland robert
p344
aa(lp345
Vsam kramberg
p346
aa(lp347
Vmischa altman
p348
aa(lp349
Velizabeth clark
p350
aa(lp351
Vwayne hultgren
p352
aa(lp353
Vwilliam ingham
p354
aa(lp355
Vjames dawkins
p356
aa(lp357
Vruth levitova
p358
aa(lp359
Vjessie obitz
p360
aa(lp361
Vclara rairland
p362
aa(lp363
Vradio electrical
p364
aa(lp365
Vmax benoff
p366
aa(lp367
Vraynal lofgren
p368
aa(lp369
Vneil crowe
p370
aa(lp371
Vcharles a duarte
p372
aa(lp373
Vsid hoff
p374
aa(lp375
Vangelina riskin
p376
aa(lp377
Vjune naboisek
p378
aa(lp379
Vgoodman brudney
p380
aa(lp381
Vjoe crago
p382
aa(lp383
Vdr. nedelman
p384
aa(lp385
Vgeorge siskin
p386
aa(lp387
Vcarleton moss
p388
aa(lp389
Vroland kibbie
p390
aVroland w. kibbee
p391
aVroland kibbee
p392
aa(lp393
Vterry clark
p394
aa(lp395
Vohio. cincinnati
p396
aa(lp397
Vmatthew crawford
p398
aa(lp399
Virving herman
p400
aa(lp401
Vnorma barzman
p402
aa(lp403
Vleo cottrell
p404
aa(lp405
Vbert corona
p406
aa(lp407
Vfanny emer
p408
aa(lp409
Vhenry blankfort
p410
aa(lp411
Vkathleen hee
p412
aa(lp413
Visrael halperin
p414
aa(lp415
Votty heller
p416
aa(lp417
Vrussell kitto
p418
aa(lp419
Vharry freed
p420
aa(lp421
Velliott grennard
p422
aa(lp423
Vgranville hicks
p424
aa(lp425
Vmichael uris
p426
aa(lp427
Vsonora babb
p428
aa(lp429
Vfrank pestana
p430
aa(lp431
Vsidney belinky
p432
aa(lp433
Vdick fiske
p434
aa(lp435
Vdave drummond
p436
aa(lp437
Vconnie l bennett
p438
aVconnie lee bennett
p439
aa(lp440
Vwilliam d. ames
p441
aa(lp442
Vherbert parker
p443
aa(lp444
Vmrs. dave mates
p445
aa(lp446
Vmrs. art wol
p447
aa(lp448
Vhelen sanberg
p449
aa(lp450
Vmyrtle wixman
p451
aa(lp452
Vharry kramer
p453
aa(lp454
Vbob chasson
p455
aa(lp456
Vrichard o'hair
p457
aVrichard f. o'hair
p458
aa(lp459
Vsterling rochester
p460
aa(lp461
Vkatie lee
p462
aa(lp463
Vvirginia kibre
p464
aa(lp465
Vmorton grant
p466
aa(lp467
Vlawrence ross
p468
aa(lp469
Vceleste strack
p470
aa(lp471
Vwilliam chandler
p472
aa(lp473
Vmorris appelman
p474
aVmorris l. appelman
p475
aa(lp476
Vcharles leonard
p477
aVcharley leonard
p478
aa(lp479
Vwalter kempler
p480
aa(lp481
Vmiriam chown
p482
aa(lp483
Vlawn brooks
p484
aa(lp485
Vseymour mandell
p486
aa(lp487
Vphil raymond
p488
aa(lp489
Volaf leddel
p490
aa(lp491
Vyield kramer
p492
aa(lp493
Vharry glassgold
p494
aa(lp495
Vdoris roberson
p496
aa(lp497
Vruth beeman
p498
aa(lp499
Vmrs. joseph losey
p500
aa(lp501
Vsam horn
p502
aa(lp503
Vmartha mcmullen
p504
aa(lp505
Vsam a darcy
p506
aVsam darcy
p507
aa(lp508
Vsaul grossman
p509
aa(lp510
Vbernie nidiss
p511
aa(lp512
Vleroy krawford
p513
aa(lp514
Vgeorge v frederick
p515
aa(lp516
Vhoward koch
p517
aa(lp518
Vjohn h reynolds
p519
aa(lp520
Vmargaret gilbert
p521
aa(lp522
Vedward huebsch
p523
aVedward huebseh
p524
aa(lp525
Vsam ornitz
p526
aVsamuel ornitz
p527
aa(lp528
Vflorence hall
p529
aa(lp530
Vlibby minkus
p531
aa(lp532
Vtiba willner
p533
aa(lp534
Vleonardo bercovici
p535
aa(lp536
Veunice mindlin
p537
aa(lp538
Vjohn dicho
p539
aa(lp540
Vmrs. perloff
p541
aa(lp542
Vadam lapin
p543
aa(lp544
Vmrs. george martin
p545
aa(lp546
Vpauline lauber finn
p547
aVpauline laserfin
p548
aa(lp549
Vbeatrice lubitz cole
p550
aVbeatrice l cole
p551
aa(lp552
Vlee pressman
p553
aa(lp554
Vrobert neville
p555
aa(lp556
Vlou solomon
p557
aa(lp558
Vherbert blache
p559
aa(lp560
Vsarah levine
p561
aa(lp562
Vadele margolis
p563
aa(lp564
Vmr. dillard
p565
aa(lp566
Vin 1944 party
p567
aa(lp568
Vwilliam r. hood
p569
aa(lp570
Virving velson
p571
aa(lp572
Vnorman ross
p573
aa(lp574
Vphilip frankfeld
p575
aa(lp576
Vjanette scofield
p577
aa(lp578
Vshirley kanter
p579
aa(lp580
Vwilliam creque
p581
aa(lp582
Vwilliam albertson
p583
aa(lp584
Vmadelaine ruthven
p585
aa(lp586
Virving krane
p587
aa(lp588
Vjames tourney
p589
aa(lp590
Vjohn joseph ellis
p591
aa(lp592
Velizabeth mcmuuen
p593
aa(lp594
Vlouise thompson
p595
aa(lp596
Vmax helfand
p597
aa(lp598
Vnelson davis
p599
aa(lp600
Vjesse perez
p601
aa(lp602
Vburton freund
p603
aa(lp604
Vleo simon
p605
aa(lp606
Vbeatrice buchman
p607
aa(lp608
Vmrs. murray abo
p609
aa(lp610
Vharry fainaru
p611
aa(lp612
Vjohn lymber
p613
aa(lp614
Vherbert davis
p615
aa(lp616
Vemma stanley
p617
aa(lp618
Vjean frederick
p619
aa(lp620
Vwalter kolowski
p621
aa(lp622
Vmrs. gus browne edith macia
p623
aa(lp624
Vmorris salz
p625
aa(lp626
Vrichard l. rykoff
p627
aa(lp628
Vjoe saul
p629
aa(lp630
Vevelyn keller
p631
aa(lp632
Vike greenberg
p633
aa(lp634
Vmarion e patrick
p635
aa(lp636
Vrussell a nixon
p637
aa(lp638
Vbob cummins
p639
aa(lp640
Vjane d kelly
p641
aa(lp642
Vmrs. milton freeman
p643
aa(lp644
Vmike karpa
p645
aa(lp646
Vhazel gray
p647
aa(lp648
Vjohn gustafson
p649
aa(lp650
Vhelen mallof
p651
aa(lp652
Vmatilda mcintosh
p653
aa(lp654
Vhonor carey
p655
aa(lp656
Vwilliam a. rodgers
p657
aa(lp658
Vharry j. marks
p659
aa(lp660
Vmrs. joe kres
p661
aa(lp662
Veugene fleury
p663
aVeugene fluery
p664
aa(lp665
Vlloyd lehman
p666
aa(lp667
Vkathleen dickerson
p668
aa(lp669
Vjulia gudinas
p670
aa(lp671
Valice wilson
p672
aValice wil
p673
aa(lp674
Vmartha stone
p675
aa(lp676
Vjohn hubley
p677
aa(lp678
Vsam donchin
p679
aa(lp680
Vjames avery
p681
aa(lp682
Vpeter hassen
p683
aa(lp684
Virving white
p685
aa(lp686
Vlouis goldblatt
p687
aa(lp688
Vlester fuller
p689
aa(lp690
Vshirley ross
p691
aa(lp692
Vjohn stanford
p693
aVjohn sanford
p694
aa(lp695
Vbernard lucas
p696
aa(lp697
Vherbert robbins
p698
aa(lp699
Varthur mcphaul
p700
aa(lp701
Vdecca treuhaft
p702
aa(lp703
Vhilliard ellis
p704
aa(lp705
Vmary e. p. bradsher
p706
aa(lp707
Vgilbert green
p708
aa(lp709
Valvin frisbie
p710
aa(lp711
Vjoseph reams
p712
aa(lp713
Vrosalind lindesmith
p714
aa(lp715
Vaubrey finn
p716
aa(lp717
Vherbert a. philbrick
p718
aVherbert philbrick
p719
aa(lp720
Vbart lytton
p721
aa(lp722
Vbetty martin
p723
aVbetty. martin
p724
aa(lp725
Vpauline hopkins
p726
aa(lp727
Vfrank tuttle
p728
aa(lp729
Vamalia pesko crago
p730
aVamalia p crago
p731
aa(lp732
Vstanley praeger
p733
aa(lp734
Vallen johnson
p735
aa(lp736
Vharry f. ward
p737
aa(lp738
Vnettie rubenstein
p739
aa(lp740
Vbay teeple
p741
aa(lp742
Vdr. decker
p743
aa(lp744
Vbea baron
p745
aa(lp746
Vgeorge chakin
p747
aa(lp748
Vjules yanover
p749
aa(lp750
Vherman clott
p751
aa(lp752
Vv. j.
p753
aa(lp754
Vbea burke
p755
aa(lp756
Vgil green
p757
aa(lp758
Vpaul rosenfeld
p759
aa(lp760
Vfreddie walker
p761
aa(lp762
Vjean butler
p763
aa(lp764
Vmr. vinson
p765
aa(lp766
Vimogene brantley
p767
aa(lp768
Vnori lafferty
p769
aa(lp770
Vsally pietrowski
p771
aa(lp772
Vdalton trumbo
p773
aVdalton trmiibo
p774
aa(lp775
Vpeter stein
p776
aa(lp777
Vsarah bognoff
p778
aa(lp779
Vgus jurist
p780
aa(lp781
Valberto moreau
p782
aa(lp783
Vhenry shire
p784
aa(lp785
Vdaniel l james
p786
aa(lp787
Vharrison george
p788
aa(lp789
Vhetty vorhaus
p790
aa(lp791
Vruth burrows
p792
aa(lp793
Vmolly young
p794
aa(lp795
Vbill norman
p796
aa(lp797
Vrobert campbell
p798
aa(lp799
Vluther morris
p800
aa(lp801
Vmolly thorner
p802
aa(lp803
Vdorothy blumberg
p804
aa(lp805
Vwalter mcelroy
p806
aa(lp807
Vflorence hutchinson
p808
aa(lp809
Vsandra martin
p810
aa(lp811
Vflo cohen
p812
aa(lp813
Vsadie ornitz
p814
aa(lp815
Vdelaware jersey
p816
aa(lp817
Vpaul schlipf
p818
aa(lp819
Vdoris fogarty
p820
aa(lp821
Vbill oliver
p822
aa(lp823
Vallan bomser
p824
aa(lp825
Vbettv verri
p826
aa(lp827
Vbranislaus zukas
p828
aa(lp829
Vernest l. seymour
p830
aa(lp831
Vjohn rapf
p832
aa(lp833
Vabner berry
p834
aa(lp835
Vcharley hayes
p836
aa(lp837
Vbeckie wolstenholme
p838
aa(lp839
Vwilliam l. alland
p840
aVwilliam allan
p841
aVwilliam alland
p842
aa(lp843
Vmarcella avnet
p844
aa(lp845
Vfred putnam
p846
aa(lp847
Vbart mar.
p848
aa(lp849
Vmrs. robert treu
p850
aa(lp851
Vrichard schlatter
p852
aa(lp853
Varthur storey
p854
aa(lp855
Vvictor kaplan
p856
aa(lp857
Vrose bush
p858
aa(lp859
Vanita boyagian
p860
aa(lp861
Velizabeth mc
p862
aVelizabeth
p863
aa(lp864
Vjesus gonzales
p865
aa(lp866
Vben maddow
p867
aa(lp868
Vjosephine w eidenoff
p869
aa(lp870
Varthur barry
p871
aa(lp872
Vcleophas brown
p873
aa(lp874
Vralph cohen
p875
aa(lp876
Vida wood
p877
aa(lp878
Vjohn schmies
p879
aa(lp880
Vivirs. sarah kaufman
p881
aa(lp882
Vjames jackson
p883
aa(lp884
Vhenry winston
p885
aa(lp886
Vdave teitelbaum
p887
aa(lp888
Vherschel alexander
p889
aa(lp890
Varthur anhattzer
p891
aa(lp892
Vvirginia schulberg
p893
aa(lp894
Vmary reed
p895
aa(lp896
Vwilliam taylor
p897
aa(lp898
Vthe committee springer
p899
aa(lp900
Vann r rieliards
p901
aa(lp902
Vmelvin krantzler
p903
aa(lp904
Vsid partridge
p905
aa(lp906
Vwilliam ted isiartin
p907
aa(lp908
Vsidney claibourne
p909
aa(lp910
Vmiss thomas
p911
aa(lp912
Vmilton henry
p913
aa(lp914
Vtom. dombrowski
p915
aa(lp916
Vabraham maymadus
p917
aa(lp918
Vharry gilder
p919
aa(lp920
Vkay bassman
p921
aa(lp922
Vcatherine vandercar
p923
aVcatherine van de kar
p924
aa(lp925
Vcarroll barnes
p926
aa(lp927
Vgordon williams
p928
aa(lp929
Vmr. lazarus
p930
aa(lp931
Vphilip connelly
p932
aVphilip m. connelly
p933
aa(lp934
Vmrs. julian gordon
p935
aa(lp936
Vhelen samuels
p937
aa(lp938
Vj. allen louise light silver
p939
aa(lp940
Vdorothy tree
p941
aa(lp942
Vmary m maraniss
p943
aa(lp944
Vsidney freeman
p945
aa(lp946
Vrose malloy
p947
aa(lp948
Vbabbette lang
p949
aa(lp950
Vrobert cole
p951
aVrobert cohen
p952
aa(lp953
Vdildar sandow
p954
aa(lp955
Vdora garber
p956
aa(lp957
Vedward chodorov
p958
aa(lp959
Vbillie mogill
p960
aa(lp961
Vcharles katz
p962
aa(lp963
Vdonnie baron
p964
aa(lp965
Vpete kowal
p966
aa(lp967
Vmrs. fred franchi
p968
aa(lp969
Vagnes grigg
p970
aa(lp971
Vjoe rohr
p972
aa(lp973
Vandy lancey
p974
aa(lp975
Vbenny goodman
p976
aa(lp977
Vboleslaw gebert
p978
aa(lp979
Vleon meadows
p980
aa(lp981
Vstanley chapman
p982
aa(lp983
Vfred fine
p984
aa(lp985
Vtillie olelvsiuk
p986
aa(lp987
Vlee gold
p988
aa(lp989
Vanthony matusek
p990
aa(lp991
Vharold smith
p992
aa(lp993
Vjack mondress
p994
aa(lp995
Vmitchell lindeman
p996
aa(lp997
Vjulius dassin
p998
aa(lp999
Vblackie meyers
p1000
aa(lp1001
Vsalvatore gentilli
p1002
aa(lp1003
Vdavid perloff
p1004
aa(lp1005
Vcarmen melia
p1006
aa(lp1007
Vrichard collins
p1008
aa(lp1009
Vlouis geller
p1010
aa(lp1011
Vkurt davis
p1012
aa(lp1013
Vgeorge cook
p1014
aa(lp1015
Vida whipple
p1016
aa(lp1017
Vpaul endicott
p1018
aa(lp1019
Vhank morley
p1020
aa(lp1021
Vlawrence west
p1022
aa(lp1023
Vselma bachelis
p1024
aVthelma bachelis
p1025
aa(lp1026
Vmary robinson
p1027
aVmarv robinson
p1028
aa(lp1029
Vmr. rossen
p1030
aa(lp1031
Vherbert march
p1032
aa(lp1033
Vgeological grier
p1034
aa(lp1035
Vmary charles d. blodgett
p1036
aVcharles d. blodgett
p1037
aa(lp1038
Vkate lawson
p1039
aa(lp1040
Vmax appleman
p1041
aVmax appleinan
p1042
aa(lp1043
Voscar barnes
p1044
aa(lp1045
Vsam reznick
p1046
aa(lp1047
Vjacob druckman
p1048
aa(lp1049
Vsaul wellman
p1050
aa(lp1051
Vcliff stice
p1052
aa(lp1053
Vruth s ryan
p1054
aVruth ryan
p1055
aa(lp1056
Vjames tracy
p1057
aa(lp1058
Vnorman perlman
p1059
aa(lp1060
Vjune kelleher
p1061
aa(lp1062
Vclarence tobet
p1063
aa(lp1064
Vflorence criley
p1065
aa(lp1066
Valso he fascism
p1067
aa(lp1068
Vben olson
p1069
aa(lp1070
Vjohn anderson
p1071
aa(lp1072
Varthur lishner
p1073
aa(lp1074
Vjohn mcternan
p1075
aa(lp1076
Vcasper kennedy
p1077
aa(lp1078
Vpfc. searles
p1079
aa(lp1080
Vsam h allen
p1081
aa(lp1082
Vjake jacobowitz
p1083
aa(lp1084
Vwilliam l.patterson
p1085
aa(lp1086
Vphilip e stevenson
p1087
aVphilip stephenson
p1088
aVphil stevenson
p1089
aVphilip stevenson
p1090
aa(lp1091
Vcecil beard
p1092
aa(lp1093
Vhyman koppelman
p1094
aa(lp1095
Vrobert sloan
p1096
aa(lp1097
Vthomas delaney
p1098
aa(lp1099
Vwilliam j. bailey
p1100
aa(lp1101
Vernie sorenson
p1102
aa(lp1103
Vclara ward
p1104
aa(lp1105
Vnaomi. robeson
p1106
aVnaomi robeson
p1107
aVnaomi robison
p1108
aa(lp1109
Vhowland chamberlin
p1110
aa(lp1111
Vann r morgan
p1112
aVann morgan
p1113
aVann roth morgan
p1114
aa(lp1115
Vpaul marion
p1116
aVpaul marion i
p1117
aa(lp1118
Vfrauces capelle
p1119
aa(lp1120
Vpele edises
p1121
aa(lp1122
Vcatherine becker
p1123
aa(lp1124
Vleola cones
p1125
aa(lp1126
Vjohn bittman
p1127
aa(lp1128
Vvern anthony
p1129
aa(lp1130
Vbruno bartnick
p1131
aa(lp1132
Vbill daley
p1133
aa(lp1134
Vmrs. gerald lief
p1135
aa(lp1136
Vjohn jeffrey
p1137
aa(lp1138
Vlouise. todd
p1139
aVlouise todd
p1140
aa(lp1141
Vblaehevherbert
p1142
aa(lp1143
Vishmael flory
p1144
aa(lp1145
Vdonald tiegland
p1146
aa(lp1147
Vrobert wachsman
p1148
aa(lp1149
Vmr. cham
p1150
aa(lp1151
Vclem dalton
p1152
aa(lp1153
Vsam cloner
p1154
aa(lp1155
Vrose kline
p1156
aVrose kliue
p1157
aa(lp1158
Vbert cooper
p1159
aa(lp1160
Vleo baroway
p1161
aa(lp1162
Vmr. goldstein
p1163
aa(lp1164
Vmary bindley
p1165
aa(lp1166
Vmr. mcallister
p1167
aa(lp1168
Vtersil t. obriot
p1169
aa(lp1170
Vmarjorie eisler
p1171
aa(lp1172
Vshirley taylor
p1173
aa(lp1174
Vmillard lampell
p1175
aVmillard lanipell
p1176
aa(lp1177
Veleanor price
p1178
aa(lp1179
Vrose elfman
p1180
aa(lp1181
Vmike martin
p1182
aa(lp1183
Vharvey narcisenfeld
p1184
aa(lp1185
Valbert maltz
p1186
aa(lp1187
Vgeorge sklar
p1188
aa(lp1189
Vbudd schulberg
p1190
aa(lp1191
Vellen davidson
p1192
aa(lp1193
Vlouis sciverras
p1194
aa(lp1195
Vsam kushner
p1196
aa(lp1197
Vlee lundgren
p1198
aa(lp1199
Vmary bray
p1200
aa(lp1201
Velinor maki
p1202
aa(lp1203
Vdavid flacks
p1204
aa(lp1205
Vmrs. irving riskin
p1206
aa(lp1207
Vjessie pedrick
p1208
aa(lp1209
Vleona mcginty
p1210
aa(lp1211
Vduncan keir
p1212
aa(lp1213
Vmrs. fleury
p1214
aa(lp1215
Vethel karson
p1216
aa(lp1217
Vhannah shapiro
p1218
aa(lp1219
Vsi fialkoff
p1220
aa(lp1221
Vannie alexander
p1222
aa(lp1223
Vpaul zilseh daniel fine
p1224
aa(lp1225
Vharry boskey
p1226
aa(lp1227
Vmr. levy
p1228
aa(lp1229
Vomar kidwell
p1230
aa(lp1231
Vozzo marrow
p1232
aa(lp1233
Vmrs. harry john mills davis
p1234
aa(lp1235
Vtom chapman
p1236
aa(lp1237
Vjohn wexley
p1238
aa(lp1239
Vjessie burns
p1240
aa(lp1241
Vjack burris
p1242
aa(lp1243
Vdavid livingston
p1244
aa(lp1245
Vclarice chapman
p1246
aa(lp1247
Vshirley stone
p1248
aa(lp1249
Vpauline vinson
p1250
aa(lp1251
Vdr. gainor
p1252
aa(lp1253
Vmilton s. tyre
p1254
aa(lp1255
Vmaurice cook
p1256
aa(lp1257
Valexander riskin
p1258
aa(lp1259
Vharry norman
p1260
aa(lp1261
Vdonald baker
p1262
aa(lp1263
Vedna ocko
p1264
aa(lp1265
Vtim potter
p1266
aa(lp1267
Vharold klein
p1268
aa(lp1269
Vmarie rinaldo
p1270
aVmarie. rinaldo
p1271
aa(lp1272
Vannette harper
p1273
aa(lp1274
Vmelvin levy
p1275
aa(lp1276
Varthur hendle
p1277
aa(lp1278
Vbob cohn
p1279
aa(lp1280
Vemily gordon
p1281
aa(lp1282
Vted kalman
p1283
aa(lp1284
Vmiss gilbert
p1285
aVmiss j gilbert
p1286
aa(lp1287
Vdewey mcgee
p1288
aa(lp1289
Vhelen wheeler
p1290
aa(lp1291
Vwilliam connors
p1292
aa(lp1293
Visaac folkoff
p1294
aa(lp1295
Vmr. gerber
p1296
aa(lp1297
Vjack sanberg
p1298
aa(lp1299
Vjoe adams
p1300
aa(lp1301
Vtamara hovey
p1302
aa(lp1303
Vcarlton col
p1304
aa(lp1305
Vhoward fast
p1306
aa(lp1307
Vbernard c. schoenfeld
p1308
aVbernard schoenfeld
p1309
aa(lp1310
Vgene lien
p1311
aa(lp1312
Vmrs. ronald mcintosh
p1313
aa(lp1314
Vsam gelfand
p1315
aa(lp1316
Vmax ireland
p1317
aa(lp1318
Vdwight hauser
p1319
aa(lp1320
Vjames ford
p1321
aa(lp1322
Vpaul curtis
p1323
aVpaul curtiss
p1324
aa(lp1325
Vhoward dr. mendell krieger
p1326
aa(lp1327
Vella gonzales
p1328
aa(lp1329
Vsven falk
p1330
aa(lp1331
Votis revis
p1332
aa(lp1333
Vu. s.
p1334
aa(lp1335
Vbarbara bick
p1336
aa(lp1337
Vherb klein
p1338
aVherbert kline
p1339
aVherbert klein
p1340
aa(lp1341
Vdave averill
p1342
aa(lp1343
Vcarl dorfman
p1344
aa(lp1345
Vruth webb
p1346
aa(lp1347
Vlee j. cobb
p1348
aa(lp1349
Vcharles dorenz
p1350
aa(lp1351
Vherta uerkvitz
p1352
aa(lp1353
Vgertrude warwick
p1354
aa(lp1355
Vruth finkelstein
p1356
aa(lp1357
Valice bennett
p1358
aa(lp1359
Vmr. andren
p1360
aa(lp1361
Vhank ripken
p1362
aa(lp1363
Veugene a toopeekoff
p1364
aa(lp1365
Vken pettus
p1366
aa(lp1367
Vlee coe
p1368
aa(lp1369
Vcharles gladstone
p1370
aVcharles goldstone
p1371
aVcharles stone
p1372
aa(lp1373
Vshimen raskin
p1374
aVshimen ruskin
p1375
aa(lp1376
Vole fagerhaugh
p1377
aa(lp1378
Vabe sokolov
p1379
aa(lp1380
Vpat killoran
p1381
aa(lp1382
Vleon turrett
p1383
aa(lp1384
Vwilliam m. samuels
p1385
aa(lp1386
Vtony kraber
p1387
aa(lp1388
Vdave grant
p1389
aa(lp1390
Vedward turner
p1391
aa(lp1392
Vpaul perlin
p1393
aa(lp1394
Vmrs. norman can
p1395
aa(lp1396
Vnathan goldstein
p1397
aa(lp1398
Vjeauette dworkin
p1399
aa(lp1400
Vdonald hatcliigan
p1401
aa(lp1402
Vserrill gerber
p1403
aVserill gerber
p1404
aa(lp1405
Vmax bogner
p1406
aa(lp1407
Vida miller
p1408
aa(lp1409
Vedith hershey
p1410
aa(lp1411
Vrude lambert
p1412
aa(lp1413
Voscar fuss
p1414
aa(lp1415
Vmrs. george mogill
p1416
aa(lp1417
Vbyron t darling
p1418
aa(lp1419
Vpaul jarrico
p1420
aVpaul jarrico-mr
p1421
aVpaul jarico
p1422
aa(lp1423
Vmrs. sidney clai
p1424
aa(lp1425
Vroyce kennedy
p1426
aa(lp1427
Vharry gordon
p1428
aVhy gordon
p1429
aa(lp1430
Vcaroline perloff
p1431
aa(lp1432
Vminua klein
p1433
aVminna klein
p1434
aa(lp1435
Vwarner calloway
p1436
aa(lp1437
Vmr. novak
p1438
aa(lp1439
Vharold dimsdale
p1440
aVhoward dimsdale
p1441
aa(lp1442
Vdaniel zahari
p1443
aa(lp1444
Vlillian heron
p1445
aa(lp1446
Vcarl williams
p1447
aa(lp1448
Vcookie wexley
p1449
aa(lp1450
Vopal terry
p1451
aa(lp1452
Velizabeth. mayhew
p1453
aa(lp1454
Vleonard cohen
p1455
aa(lp1456
Vmrs. william
p1457
aa(lp1458
Vjean richardson
p1459
aa(lp1460
Vgeorge mclean
p1461
aa(lp1462
Vwhat is smith
p1463
aa(lp1464
Vmatt vidaver
p1465
aa(lp1466
Vlarne mccormiek
p1467
aVlarue mccormick
p1468
aa(lp1469
Vbeulah wales
p1470
aa(lp1471
Vroy hudson
p1472
aa(lp1473
Vlottie glicker
p1474
aa(lp1475
Varnold dorenz
p1476
aa(lp1477
Vshelly davis
p1478
aVsally davis
p1479
aa(lp1480
Vhilliard chamblis
p1481
aa(lp1482
Vleo gallagher
p1483
aa(lp1484
Vhenry peterson
p1485
aa(lp1486
Vrussell w bnrnstein
p1487
aa(lp1488
Valbert r williams
p1489
aa(lp1490
Velizabeth guarnaccia
p1491
aa(lp1492
Vjulian shapiro
p1493
aa(lp1494
Vanna l strong
p1495
aa(lp1496
Vgay bailey
p1497
aa(lp1498
Val heltness
p1499
aa(lp1500
Vjoseph zadow
p1501
aa(lp1502
Vzema matlin
p1503
aa(lp1504
Velizabetb barlow
p1505
aa(lp1506
Vshirley bollin
p1507
aa(lp1508
Vdorothy pezman
p1509
aVdorothy pezinan
p1510
aa(lp1511
Velaine black
p1512
aa(lp1513
Vrose clinton
p1514
aa(lp1515
Vsue rossen
p1516
aa(lp1517
Vlem belton
p1518
aa(lp1519
Vlouis seofield
p1520
aa(lp1521
Vharold ashe
p1522
aa(lp1523
Vdorothy uris
p1524
aa(lp1525
Vherbert goldfrank
p1526
aa(lp1527
Vfunn dorothy k
p1528
aa(lp1529
Vrobert treuhaft
p1530
aa(lp1531
Vbobbie karson
p1532
aa(lp1533
Vella winter
p1534
aa(lp1535
Vsylvia m polonsky
p1536
aa(lp1537
Vbert stone
p1538
aa(lp1539
Vcharles h. garnrgues
p1540
aVcharles h. garrigues
p1541
aa(lp1542
Vjean erickson
p1543
aa(lp1544
Vjeannette finkelstein
p1545
aa(lp1546
Vleslie dolman
p1547
aa(lp1548
Vben davis club
p1549
aa(lp1550
Vbenjamin d anton
p1551
aa(lp1552
Vnick baltic
p1553
aa(lp1554
Vray blossom
p1555
aa(lp1556
Vharry shepro
p1557
aa(lp1558
Vfrank allen
p1559
aa(lp1560
Vyal burton
p1561
aVval burton
p1562
aa(lp1563
Vbruce anderson
p1564
aa(lp1565
Vmary c grier
p1566
aa(lp1567
Vjim tourney
p1568
aVjim thorne
p1569
aa(lp1570
Vhelen pate
p1571
aa(lp1572
Vwilliam blowitz
p1573
aa(lp1574
Virving goff
p1575
aa(lp1576
Vsymanthia washington
p1577
aa(lp1578
Vjames cutno
p1579
aa(lp1580
Vclifford odets
p1581
aa(lp1582
Vjohnny cole
p1583
aa(lp1584
Vjohn looschen
p1585
aa(lp1586
Virwin lieberman
p1587
aa(lp1588
Vsue cohen
p1589
aa(lp1590
Vjohn watkins
p1591
aa(lp1592
Velia kazan
p1593
aVr. elia kazan
p1594
aa(lp1595
Vhelen palmquist
p1596
aa(lp1597
Vmr. graff
p1598
aa(lp1599
Vmatilda lewis
p1600
aa(lp1601
Vfrank moskin
p1602
aa(lp1603
Vmaurice braverman
p1604
aa(lp1605
Vleon shapiro
p1606
aa(lp1607
Vjay rubin
p1608
aa(lp1609
Vwillie gale
p1610
aa(lp1611
Vanne froelich
p1612
aa(lp1613
Vlouise janis
p1614
aa(lp1615
Vmrs. george van fred
p1616
aa(lp1617
Vstanley roberts
p1618
aa(lp1619
Vfred m. snider
p1620
aa(lp1621
Vjeff kibre
p1622
aa(lp1623
Vraphael haskell
p1624
aa(lp1625
Vpaul boatin
p1626
aa(lp1627
Vedwin m max
p1628
aa(lp1629
Vmrs. arthur mayhew
p1630
aa(lp1631
Vbernard vorhaus
p1632
aa(lp1633
Vthelma dale
p1634
aa(lp1635
Vlane thomas
p1636
aa(lp1637
Vwilliam g. israel
p1638
aa(lp1639
Vjack raskin
p1640
aa(lp1641
Vruth weber
p1642
aa(lp1643
Vjoe dougher
p1644
aa(lp1645
Vstephanie allan
p1646
aa(lp1647
Vhodges mason
p1648
aa(lp1649
Vrichard lynden
p1650
aa(lp1651
Vwilliam s. johnson
p1652
aa(lp1653
Vruth dombrowski
p1654
aa(lp1655
Vbob raven
p1656
aa(lp1657
Vmeridel leseuer
p1658
aa(lp1659
Ved strong
p1660
aa(lp1661
Vwalter rogalski
p1662
aa(lp1663
Vlouise losey
p1664
aa(lp1665
Vphoebe brand
p1666
aa(lp1667
Vfreda marcus
p1668
aa(lp1669
Vmax weitzman
p1670
aa(lp1671
Vnoum light
p1672
aa(lp1673
Vfrank oppenheimer
p1674
aa(lp1675
Vseymour bennett
p1676
aa(lp1677
Vmike gold
p1678
aa(lp1679
Vjean mayer
p1680
aa(lp1681
Vtheodore s. polumbaum
p1682
aa(lp1683
Vmichael wilson
p1684
aVmitchell wilson
p1685
aa(lp1686
Vdodd bella v
p1687
aa(lp1688
Vmort newman
p1689
aa(lp1690
Vallen l ryan
p1691
aa(lp1692
Vhenry beitscher
p1693
aa(lp1694
Vdorothy k. fram
p1695
aa(lp1696
Vmrs. harry
p1697
aa(lp1698
Vmarjorie canrlght
p1699
aa(lp1700
Vmilton schleicher
p1701
aa(lp1702
Vjack gore
p1703
aa(lp1704
Vbella lewitzky
p1705
aa(lp1706
Vdorothy olson
p1707
aa(lp1708
Vmills sampy
p1709
aa(lp1710
Vpaul trabusis
p1711
aa(lp1712
Vlynn whitney
p1713
aa(lp1714
Vwayne b. salisbury
p1715
aa(lp1716
Vernest scott
p1717
aa(lp1718
Vjulian gordon
p1719
aa(lp1720
Vas a condon
p1721
aa(lp1722
Vbyron thorwell darling
p1723
aa(lp1724
Vjack j pompquist
p1725
aa(lp1726
Vjosef michel
p1727
aVjosef mischel
p1728
aa(lp1729
Vsue lawson
p1730
aa(lp1731
Vreva redstone
p1732
aa(lp1733
Vbernice eraser
p1734
aa(lp1735
Vsid burke
p1736
aVsidney burke
p1737
aa(lp1738
Vjanet scott
p1739
aa(lp1740
Vfelix maise
p1741
aa(lp1742
Vfrieda schweukmyer
p1743
aa(lp1744
Vsamuel dimaria
p1745
aa(lp1746
Vmartin berkeley
p1747
aa(lp1748
Vjanet mcharg
p1749
aa(lp1750
Vharriet belinky
p1751
aa(lp1752
Vjohn k ellis
p1753
aa(lp1754
Vhilton wolf
p1755
aa(lp1756
Vleo gerstinheim
p1757
aa(lp1758
Vjoe kuzma
p1759
aVjoseph kuzma
p1760
aa(lp1761
Vleo cefkin
p1762
aa(lp1763
Vgladys black
p1764
aa(lp1765
Vrichard frank
p1766
aa(lp1767
Vgurley walker
p1768
aa(lp1769
Vmarcus singer
p1770
aa(lp1771
Vhugo butler
p1772
aa(lp1773
Vsidney bloomfield
p1774
aa(lp1775
Vruth hultgren
p1776
aa(lp1777
Vmarguerite roberts
p1778
aa(lp1779
Vfrank rogers
p1780
aa(lp1781
Valbert hickox
p1782
aa(lp1783
Vanne witkowski
p1784
aa(lp1785
Vpope huff
p1786
aa(lp1787
Vdorothy anhattzer
p1788
aa(lp1789
Vtheo kruse
p1790
aa(lp1791
Vjane march
p1792
aa(lp1793
Vsam kalish
p1794
aa(lp1795
Vlena wiena
p1796
aa(lp1797
Vjames keller
p1798
aa(lp1799
Vjack s. zucker
p1800
aa(lp1801
Varthur strawn
p1802
aa(lp1803
Vsam hammersmark
p1804
aa(lp1805
Vjohn wilson
p1806
aa(lp1807
Vfrancis edwards faragoh
p1808
aVfrancis faragoh
p1809
aVfrancis e faragoh
p1810
aVfrancis edward faragoh
p1811
aa(lp1812
Vjoseph starobin
p1813
aa(lp1814
Vwillie howell
p1815
aa(lp1816
Vrobert purdy
p1817
aa(lp1818
Vjames kendall
p1819
aa(lp1820
Vmargaret ginsberg
p1821
aa(lp1822
Vwesley bodkin
p1823
aa(lp1824
Vrichard mcmahon
p1825
aa(lp1826
Vrichard b lewis
p1827
aVrichard b. lewis
p1828
aVrichard byrd lewis
p1829
aa(lp1830
Vdavid aaron
p1831
aa(lp1832
Vedward biberman
p1833
aa(lp1834
Vdorrhy k. fttttj
p1835
aa(lp1836
Vsara kusnitz
p1837
aVsara kusiiitz
p1838
aVsara kusnetz
p1839
aa(lp1840
Vfred elesio
p1841
aa(lp1842
Vmorris keller
p1843
aa(lp1844
Vlloyd gough
p1845
aa(lp1846
Vmartha campion
p1847
aa(lp1848
Vmrs. newell rey
p1849
aa(lp1850
Vharry tanner
p1851
aa(lp1852
Vcarl winter
p1853
aa(lp1854
Vpaula miller
p1855
aa(lp1856
Vbert witkowski
p1857
aa(lp1858
Vrobert d katz
p1859
aa(lp1860
Vbella l reynolds
p1861
aVbella reynolds
p1862
aa(lp1863
Vsndtie dawson
p1864
aVsadie dawvson
p1865
aVsadie dawson
p1866
aa(lp1867
Vcarl rogers
p1868
aa(lp1869
Vcelia edwards
p1870
aa(lp1871
Vora kelly
p1872
aa(lp1873
Vethel claibourne
p1874
aa(lp1875
Vmrs. george hall
p1876
aa(lp1877
Vdonald murray
p1878
aa(lp1879
Vleo turner
p1880
aa(lp1881
Vwilma shore
p1882
aa(lp1883
Vleslie edgley
p1884
aVles edgley
p1885
aa(lp1886
Vmorris karson
p1887
aa(lp1888
Vsam witczak
p1889
aa(lp1890
Vdave ellis
p1891
aa(lp1892
Vmildred grossman
p1893
aa(lp1894
Vbob robinson
p1895
aa(lp1896
Vmort furay
p1897
aa(lp1898
Vowen vinson
p1899
aa(lp1900
Vnicholas campas
p1901
aa(lp1902
Vsis cunningham
p1903
aa(lp1904
Vabe burrows
p1905
aa(lp1906
Vjoe ayeroff
p1907
aVjoseph ayeroff
p1908
aa(lp1909
Vmargaret und
p1910
aVmargaret undjus
p1911
aa(lp1912
Vmr. townsend
p1913
aa(lp1914
Vloretta adam
p1915
aa(lp1916
Vjack tenner
p1917
aa(lp1918
Varthur o wright
p1919
aa(lp1920
Vjulius jacobs
p1921
aa(lp1922
Velizabeth bentley
p1923
aa(lp1924
Vdouglas w ward
p1925
aa(lp1926
Vherman waldreen
p1927
aa(lp1928
Vrose pearson
p1929
aa(lp1930
Vlarry blyth
p1931
aa(lp1932
Vvictor shapiro
p1933
aVvic shapiro
p1934
aa(lp1935
Vbill rutter
p1936
aa(lp1937
Vjean hedley
p1938
aa(lp1939
Vbob klonsky
p1940
aa(lp1941
Vjessie carufo
p1942
aa(lp1943
Vdorothy woods
p1944
aa(lp1945
Velmer hanoff
p1946
aa(lp1947
Vcharles oberkirch
p1948
aa(lp1949
Vmrs. ball
p1950
aa(lp1951
Vfred davey
p1952
aa(lp1953
Vart braunlich
p1954
aa(lp1955
Vcharles mcclaughlan
p1956
aa(lp1957
Vgrant oakes
p1958
aa(lp1959
Vpressley green
p1960
aa(lp1961
Vralph glick
p1962
aa(lp1963
Vphil schatz
p1964
aa(lp1965
Vbill gardner
p1966
aVbill redner
p1967
aa(lp1968
Valice cohee
p1969
aa(lp1970
Vbarbara stern
p1971
aa(lp1972
Vsimson marcus
p1973
aa(lp1974
Vpaul heide
p1975
aa(lp1976
Vsterling hayden
p1977
aa(lp1978
Vharry fruit
p1979
aa(lp1980
Vnat praeger
p1981
aa(lp1982
Vvirgil akeson
p1983
aa(lp1984
Vjoseph schlicht
p1985
aa(lp1986
Vlouis perry
p1987
aa(lp1988
Vdaniel trees
p1989
aa(lp1990
Varnold manoff
p1991
aa(lp1992
Vbob morrell
p1993
aa(lp1994
Vwalter dorosh
p1995
aa(lp1996
Vedith johnson
p1997
aa(lp1998
Vdorothy healy
p1999
aVdorothy healey
p2000
aa(lp2001
Vsteve miller
p2002
aa(lp2003
Vesther siegel
p2004
aa(lp2005
Vmalcolm wright
p2006
aa(lp2007
Vart shields
p2008
aa(lp2009
Vurcel daniel
p2010
aa(lp2011
Vangela clarke
p2012
aa(lp2013
Vanya lieberson
p2014
aa(lp2015
Vrose segure
p2016
aa(lp2017
Vjake price
p2018
aa(lp2019
Vsarah wepman
p2020
aa(lp2021
Vjohn sobczak
p2022
aa(lp2023
Vfran salit
p2024
aa(lp2025
Vthomas l. louise light silver
p2026
aa(lp2027
Vwill campbell
p2028
aa(lp2029
Varthur l. levy
p2030
aa(lp2031
Valbert hackett
p2032
aValbert lockett
p2033
aa(lp2034
Vdave moore
p2035
aa(lp2036
Vcarneller foreman
p2037
aa(lp2038
Vjess whipple
p2039
aa(lp2040
Vhenrietta martin
p2041
aVhenriette martin
p2042
aa(lp2043
Vcharlotte kyer
p2044
aVcharlotte wacker
p2045
aa(lp2046
Vlou rosser
p2047
aVlouis rosser
p2048
aa(lp2049
Vjoseph pentacost
p2050
aa(lp2051
Vpete matanami
p2052
aa(lp2053
Vsig hesse
p2054
aa(lp2055
Vbarbara darling
p2056
aa(lp2057
Vharry c. steinmetz
p2058
aVharry c.steinmetz
p2059
aVharry steinmetz
p2060
aVharry steinmet
p2061
aVharry stelnmetz
p2062
aa(lp2063
Vwilhelmina maise
p2064
aa(lp2065
Vnora hellgren
p2066
aVnora hallgren
p2067
aa(lp2068
Vharry carlisles
p2069
aVharry carlyle
p2070
aVharry carlisle
p2071
aa(lp2072
Vdavid a. lang
p2073
aVdavid lang
p2074
aa(lp2075
Vdavid raksin
p2076
aa(lp2077
Vcatherine larkin
p2078
aa(lp2079
Voifioe workei
p2080
aa(lp2081
Vruth jennings
p2082
aa(lp2083
Vhelen leonard
p2084
aa(lp2085
Vtassia freed
p2086
aa(lp2087
Vjacob geyer
p2088
aa(lp2089
Vadrian scott
p2090
aa(lp2091
Vnicholas bela
p2092
aa(lp2093
Vbetty gannett
p2094
aVbetty gainett
p2095
aa(lp2096
Vharry haywood
p2097
aa(lp2098
Vgordon rosenblum
p2099
aa(lp2100
Valbert herzig
p2101
aa(lp2102
Voleta o yates
p2103
aa(lp2104
Vtody gilbert
p2105
aVjody gilbert
p2106
aa(lp2107
Vballis blaisdell
p2108
aa(lp2109
Velizabeth glenn
p2110
aVelizabeth l glenn
p2111
aa(lp2112
Vwilliam b. mann school
p2113
aa(lp2114
Vmrs. cliff bollin
p2115
aa(lp2116
Vbertram edises
p2117
aa(lp2118
Vmiss campbell
p2119
aa(lp2120
Vmartha schkurman
p2121
aa(lp2122
Vgrace zarniack
p2123
aa(lp2124
Vedith bomser
p2125
aa(lp2126
Vrussell coppock
p2127
aa(lp2128
Vbill young
p2129
aa(lp2130
Vrude lauibtmt
p2131
aa(lp2132
Vwilliam mckie
p2133
aa(lp2134
Vmrs. arnaud d'us
p2135
aa(lp2136
Vbridget poison
p2137
aa(lp2138
Vjulian zimet
p2139
aa(lp2140
Vkatrina manley
p2141
aa(lp2142
Vlou baron
p2143
aa(lp2144
Val white
p2145
aa(lp2146
Vmiriam solomon
p2147
aa(lp2148
Vanthony koss
p2149
aa(lp2150
Vjohn mills davis
p2151
aa(lp2152
Vben pollin
p2153
aVben polin
p2154
aa(lp2155
Vcharles reichman
p2156
aa(lp2157
Vben dobbs
p2158
aa(lp2159
Varthur birnkarnt
p2160
aVarthur birnkrant
p2161
aa(lp2162
Vjoe terry
p2163
aa(lp2164
Vlouis budenz
p2165
aVlouis f. budenz
p2166
aa(lp2167
Vclarence hathaway
p2168
aa(lp2169
Vandrew overgaard
p2170
aVandrew obergaard
p2171
aa(lp2172
Vallen boretz
p2173
aa(lp2174
Vmrs. philip steven
p2175
aa(lp2176
Vrobert brown
p2177
aa(lp2178
Vgoldie gregurek
p2179
aa(lp2180
Vroi sherman
p2181
aa(lp2182
Vbarbara springer
p2183
aa(lp2184
Vtania tuttle
p2185
aVtama tuttle
p2186
aVtanya tuttle
p2187
aa(lp2188
Vharold t. woerner, jr.
p2189
aa(lp2190
Vjules keivetz
p2191
aa(lp2192
Valice ferris
p2193
aa(lp2194
Velaine gonda
p2195
aa(lp2196
Vtimothy shay
p2197
aa(lp2198
Vcharles klare
p2199
aa(lp2200
Vdr. goodlaw optometrist
p2201
aa(lp2202
Vjane wallace
p2203
aVjane. wallace
p2204
aa(lp2205
Vmaurice clark
p2206
aa(lp2207
Vina lamaux
p2208
aa(lp2209
Vjack ginsberg
p2210
aa(lp2211
Vann yanish
p2212
aa(lp2213
Vlewis leverett
p2214
aa(lp2215
Vmargaret cowl
p2216
aa(lp2217
Vmatt snyder
p2218
aa(lp2219
Vfred steinmetz
p2220
aa(lp2221
Vluke hinman
p2222
aa(lp2223
Varchie acciacca
p2224
aa(lp2225
Vjerry bond
p2226
aa(lp2227
Vvera harris
p2228
aa(lp2229
Vwilliam sheehan
p2230
aa(lp2231
Vfrances price
p2232
aa(lp2233
Vherman burt
p2234
aa(lp2235
Vmurray abowitz
p2236
aa(lp2237
Vroy wilson
p2238
aa(lp2239
Vbob washington
p2240
aa(lp2241
Vjames lerner
p2242
aa(lp2243
Vmilt kashner
p2244
aa(lp2245
Vsanders sheff
p2246
aVsanders shelf
p2247
aa(lp2248
Vwilliam holther
p2249
aa(lp2250
Vaubrey grossman
p2251
aa(lp2252
Vflorence jacobs
p2253
aa(lp2254
Valan campbell
p2255
aa(lp2256
Vmary nolan
p2257
aa(lp2258
Vdan slinger
p2259
aa(lp2260
Vreva handle
p2261
aa(lp2262
Vgordon kahn
p2263
aVgordon kahn-do
p2264
aa(lp2265
Vjane grodzins
p2266
aa(lp2267
Vdave davis
p2268
aa(lp2269
Vsonja dahl
p2270
aa(lp2271
Vhyman s kraft
p2272
aa(lp2273
Vjack birch
p2274
aa(lp2275
Vmrs. harold gold
p2276
aa(lp2277
Vzachary schwartz
p2278
aVzachery schwartz
p2279
aa(lp2280
Vrubby sherr
p2281
aa(lp2282
Vemma williams
p2283
aa(lp2284
Vkostas dakchoylous
p2285
aa(lp2286
Vhelen allison
p2287
aa(lp2288
Vjim frazier
p2289
aa(lp2290
Vnina handman
p2291
aa(lp2292
Vjanet stephenson
p2293
aVjanet stevenson
p2294
aa(lp2295
Vjohn spears
p2296
aa(lp2297
Vsarah. hartman
p2298
aa(lp2299
Vcleveland hearn
p2300
aa(lp2301
Valfred wagenknecht
p2302
aa(lp2303
Vlouis l. kaplan
p2304
aa(lp2305
Vdaniel b schirmer
p2306
aa(lp2307
Vfred graff
p2308
aVfreddie graff
p2309
aa(lp2310
Vbetty ireland
p2311
aa(lp2312
Vjames widmark
p2313
aa(lp2314
Vmrs. dave sharf
p2315
aa(lp2316
Vjens simousgard
p2317
aa(lp2318
Valexander trachtenberg
p2319
aa(lp2320
Vglos ludowy
p2321
aa(lp2322
Vnerval crutcher
p2323
aa(lp2324
Vann white
p2325
aa(lp2326
Vmr. green
p2327
aa(lp2328
Vmiss ell
p2329
aa(lp2330
Vclement wilenchick
p2331
aa(lp2332
Varcus reddock
p2333
aa(lp2334
Vrobert rossen
p2335
aa(lp2336
Voscar elkins
p2337
aa(lp2338
Visadore amdur
p2339
aa(lp2340
Vmack libby
p2341
aa(lp2342
Vgeorge corey
p2343
aa(lp2344
Vcalvin cousins
p2345
aa(lp2346
Vann roth morgan richards
p2347
aa(lp2348
Vkenneth roach
p2349
aa(lp2350
Vmrs. arnold manoff
p2351
aa(lp2352
Vlloyd seeliger
p2353
aa(lp2354
Vjohn berry
p2355
aa(lp2356
Vmax klansky
p2357
aa(lp2358
Vmildred. pierce
p2359
aa(lp2360
Vrob hall
p2361
aa(lp2362
Vfred gebelle
p2363
aa(lp2364
Vjohn mcgrew
p2365
aa(lp2366
Vcea geiselman
p2367
aa(lp2368
Vhymie alpert
p2369
aVhymie aliiert
p2370
aa(lp2371
Vroger capelle
p2372
aa(lp2373
Vmrs. abraham polonsky
p2374
aa(lp2375
Vabe feinglass
p2376
aa(lp2377
Vmary bradsher
p2378
aa(lp2379
Vdon cameron
p2380
aa(lp2381
Vmary sherwood
p2382
aa(lp2383
Vsue showerman
p2384
aa(lp2385
Vbarbara roberts-and
p2386
aVbarbara roberts
p2387
aa(lp2388
Vjoe carr
p2389
aVjoe car
p2390
aa(lp2391
Vmartha fletcher
p2392
aa(lp2393
Vmildred ashe
p2394
aa(lp2395
Vmrs. charles glenn
p2396
aa(lp2397
Vcharles page
p2398
aVcharles a page
p2399
aa(lp2400
Vjack 01
p2401
aa(lp2402
Vdr. condon
p2403
aa(lp2404
Vludwig donath
p2405
aVmrs ludwig donath
p2406
aa(lp2407
Vpeggy wellman
p2408
aa(lp2409
Vflorence kniep
p2410
aa(lp2411
Vpercy solotoy
p2412
aa(lp2413
Vmary kotick
p2414
aa(lp2415
Vgertrude selig
p2416
aa(lp2417
Vjesse parrish
p2418
aa(lp2419
Vmiss s wells
p2420
aa(lp2421
Vmorris carnovsky
p2422
aa(lp2423
Vcharles hendley
p2424
aa(lp2425
Vgodine eagle
p2426
aa(lp2427
Vpat callahan
p2428
aa(lp2429
Vsam wlxman
p2430
aVsam wixman
p2431
aa(lp2432
Vmrs. fisher
p2433
aa(lp2434
Vnina klowden
p2435
aa(lp2436
Vcarl brodsky
p2437
aa(lp2438
Vdavid hilberman
p2439
aVdavid hilberiman
p2440
aVdavid hillierman
p2441
aVdavid herman
p2442
aVdavid hilbernan
p2443
aVdave hilberman
p2444
aa(lp2445
Vthomas wood
p2446
aa(lp2447
Vsylvia. marrow
p2448
aa(lp2449
Vandy charles
p2450
aa(lp2451
Vrosalie crockett
p2452
aa(lp2453
Vbill lawrence
p2454
aa(lp2455
Vnorris wood
p2456
aa(lp2457
Vthomas deaoon
p2458
aa(lp2459
Vjimmy allen
p2460
aa(lp2461
Vtrudy peck
p2462
aa(lp2463
Valvin hammer
p2464
aa(lp2465
Vjerome robinson
p2466
aVjerome robbins
p2467
aa(lp2468
Vwalter kirkon
p2469
aa(lp2470
Vfanya friedman
p2471
aa(lp2472
Vsaul friedburg
p2473
aa(lp2474
Vjohn dohierty
p2475
aVjohn doberty
p2476
aa(lp2477
Vpaul benedict mar. 12
p2478
aa(lp2479
Velena beck
p2480
aa(lp2481
Vmrs. owen vinson
p2482
aa(lp2483
Vedna rosen
p2484
aa(lp2485
Vmelvyn letzman
p2486
aa(lp2487
Vmarta bogner
p2488
aa(lp2489
Vselma lahne
p2490
aa(lp2491
Vbooker white
p2492
aa(lp2493
Veleanor smith
p2494
aa(lp2495
Vevelyn weinstein
p2496
aa(lp2497
Vwilliam bottcher
p2498
aa(lp2499
Vgeorge kristalsky
p2500
aa(lp2501
Vsylvia jarrico
p2502
aa(lp2503
Vethel holmstock
p2504
aa(lp2505
Vbertha grover
p2506
aa(lp2507
Vlarry davis
p2508
aa(lp2509
Valice buchmah
p2510
aa(lp2511
Vfred douglas club
p2512
aa(lp2513
Vflorence mcdonald
p2514
aa(lp2515
Vbernice fleury
p2516
aVbernyce fleury
p2517
aVbernice fluery
p2518
aVberuyce p fleury
p2519
aVbernyce p fleury
p2520
aa(lp2521
Vlucy stander
p2522
aa(lp2523
Vfreda spivak
p2524
aa(lp2525
Vann r richards
p2526
aa(lp2527
Velinor l cook
p2528
aa(lp2529
Vdorothy parker
p2530
aa(lp2531
Vfred biedenkapp
p2532
aa(lp2533
Vk. frmn
p2534
aa(lp2535
Vleroy herndon
p2536
aa(lp2537
Vgerald liefchild
p2538
aa(lp2539
Vfrances gordon
p2540
aa(lp2541
Vjane wilson
p2542
aa(lp2543
Vdolph winebrenner
p2544
aa(lp2545
Vcharles lassiter
p2546
aa(lp2547
Vherbert naboisek
p2548
aa(lp2549
Vwaldo salt
p2550
aa(lp2551
Vgeorge shaffer
p2552
aa(lp2553
Vmaurice howard
p2554
aa(lp2555
Vmorton nadler
p2556
aa(lp2557
Vtommy dennis
p2558
aa(lp2559
Vanne green
p2560
aa(lp2561
Val brown
p2562
aValpa brown
p2563
aa(lp2564
Vmatt savola
p2565
aa(lp2566
Vmrs. funn
p2567
aa(lp2568
Vernest boykin
p2569
aa(lp2570
Vsarah simonsgard
p2571
aa(lp2572
Vjohn little
p2573
aa(lp2574
Vmichael gordon
p2575
aVmitchell gordon
p2576
aa(lp2577
Vmercier reese
p2578
aa(lp2579
Vleila thompson
p2580
aa(lp2581
Vchris alston
p2582
aa(lp2583
Vmrs. strasberg
p2584
aa(lp2585
Veverett weil
p2586
aVeverett well
p2587
aa(lp2588
Vethel spiller
p2589
aa(lp2590
Vbenjamin gitlow
p2591
aa(lp2592
Vsidney buchman
p2593
aa(lp2594
Vlawrence arguimbau
p2595
aa(lp2596
Vfred franchi
p2597
aVfred franchia
p2598
aa(lp2599
Vjonathan eddy
p2600
aa(lp2601
Vbetty laros
p2602
aa(lp2603
Vmary casaro
p2604
aa(lp2605
Vrachael carter
p2606
aa(lp2607
Vstanley adamski
p2608
aa(lp2609
Vbernhard stern
p2610
aa(lp2611
Vmarian redner
p2612
aa(lp2613
Valex treskiu
p2614
aa(lp2615
Vhjalman peterson
p2616
aVhjalmar peterson
p2617
aa(lp2618
Vharry g itskowitz
p2619
aa(lp2620
Vsol short
p2621
aVsol shor
p2622
aa(lp2623
Vcarl grossenbacher
p2624
aa(lp2625
Valexander kolker
p2626
aa(lp2627
Vjeannie kudlik
p2628
aa(lp2629
Vfrank iglesias
p2630
aa(lp2631
Veva shafron
p2632
aVeva shafran
p2633
aa(lp2634
Vjack white
p2635
aa(lp2636
Vjoy pepper
p2637
aa(lp2638
Vanna shepro
p2639
aa(lp2640
Vmr. kazan
p2641
aa(lp2642
Varthur osman
p2643
aa(lp2644
Ved robbins
p2645
aa(lp2646
Vmaurice perlman
p2647
aa(lp2648
Vmarjorie macgregor
p2649
aVmarjorie. macgregor
p2650
aa(lp2651
Vwalter laniliert
p2652
aa(lp2653
Vgerald j boyd
p2654
aa(lp2655
Vmr. silver
p2656
aa(lp2657
Vlouise gilliam
p2658
aa(lp2659
Vjack davis
p2660
aa(lp2661
Vharold robertson
p2662
aa(lp2663
Vclyde champion
p2664
aa(lp2665
Vlen decaux
p2666
aa(lp2667
Vdaniel j. boorstin
p2668
aa(lp2669
Vlouise seidel
p2670
aa(lp2671
Vmarie phillips
p2672
aa(lp2673
Vstanley hancock
p2674
aa(lp2675
Vlettie stever
p2676
aa(lp2677
Vmurray levine
p2678
aa(lp2679
Vvan brook
p2680
aa(lp2681
Vjames gilliam
p2682
aa(lp2683
Vlouis green
p2684
aa(lp2685
Vpaul chown
p2686
aa(lp2687
Vbenjamin lieberman
p2688
aa(lp2689
Vadeline cole
p2690
aa(lp2691
Vpaul geiselman
p2692
aa(lp2693
Vann rotti
p2694
aa(lp2695
Vmary v farmer
p2696
aa(lp2697
Vluther talley
p2698
aa(lp2699
Vjoe. marlovits
p2700
aa(lp2701
Vdarr smith
p2702
aa(lp2703
Vdick criley
p2704
aa(lp2705
Vcasimir rataj
p2706
aa(lp2707
Vthomas anderson
p2708
aa(lp2709
Vdean hood
p2710
aa(lp2711
Vjack lazar
p2712
aa(lp2713
Vjohn cherveny
p2714
aa(lp2715
Vsally attarian
p2716
aa(lp2717
Vfrieda trachgin
p2718
aa(lp2719
Vpat toohey
p2720
aa(lp2721
Vfay g grossman
p2722
aa(lp2723
Visobel lennart
p2724
aa(lp2725
Vtillie lerner
p2726
aa(lp2727
Vdon gordon
p2728
aa(lp2729
Vherman mazer
p2730
aa(lp2731
Vjim keller
p2732
aa(lp2733
Vgertrude evans
p2734
aa(lp2735
Vroy narancich
p2736
aa(lp2737
Vangus wooley
p2738
aa(lp2739
Vmiss monjar
p2740
aa(lp2741
Vcharles young
p2742
aa(lp2743
Vesther shandler
p2744
aa(lp2745
Vphil hommer
p2746
aa(lp2747
Vbill clifford
p2748
aa(lp2749
Vjohn smith
p2750
aa(lp2751
Valcide t. kratz
p2752
aa(lp2753
Vray halpern
p2754
aa(lp2755
Vraphael konigsburg
p2756
aa(lp2757
Vmatilda maxwell
p2758
aa(lp2759
Vpettis perry
p2760
aa(lp2761
Vharry jackson
p2762
aa(lp2763
Vmoe finklestein
p2764
aa(lp2765
Vzina b haskell
p2766
aa(lp2767
Vphillis mcray
p2768
aa(lp2769
Vjerry fielde
p2770
aa(lp2771
Vsanford bernstein
p2772
aa(lp2773
Vtom cullen
p2774
aa(lp2775
Vwalter barry
p2776
aa(lp2777
Vclarence stoecker
p2778
aa(lp2779
Vhannah s donath
p2780
aa(lp2781
Vwill geer
p2782
aa(lp2783
Vruth standish
p2784
aa(lp2785
Vcharles blacklock
p2786
aa(lp2787
Vhazel jones
p2788
aa(lp2789
Virving gold
p2790
aa(lp2791
Vmatt richman
p2792
aa(lp2793
Vrobert dwinnell
p2794
aa(lp2795
Vabraham mlnkus
p2796
aVabrahm minkus
p2797
aa(lp2798
Vjohn weber
p2799
aVjohnny weber
p2800
aa(lp2801
Vhoyt haddock
p2802
aa(lp2803
Vsophia malloy
p2804
aa(lp2805
Vjoe poskonka
p2806
aa(lp2807
Vcliff lechrome
p2808
aa(lp2809
Vjohn gray
p2810
aa(lp2811
Vsophia elfont
p2812
aa(lp2813
Vgeorge tyne
p2814
aa(lp2815
Vshelton tappes
p2816
aa(lp2817
Vmarburg yerkes
p2818
aa(lp2819
Vdavid engelstein
p2820
aa(lp2821
Vizzy berenson
p2822
aa(lp2823
Vreuben ship
p2824
aVreuben ship i
p2825
aa(lp2826
Vpeter chaunt
p2827
aa(lp2828
Velias schwarzbart
p2829
aa(lp2830
Vpercy llewelyn
p2831
aa(lp2832
Vvirginia mullen
p2833
aa(lp2834
Vanna mcintosh
p2835
aa(lp2836
Vmary morrell
p2837
aa(lp2838
Valbert byler
p2839
aa(lp2840
Vhenry meihs
p2841
aa(lp2842
Vdan james
p2843
aa(lp2844
Vcharles judson
p2845
aa(lp2846
Vesther shapiro
p2847
aa(lp2848
Vedna r coleman
p2849
aa(lp2850
Vjohn stapp
p2851
aVjohn stapp-s
p2852
aa(lp2853
Vwilliam schneidermann
p2854
aVwilliam schneiderman
p2855
aa(lp2856
Vjanet george glass
p2857
aa(lp2858
Vdavid rappaport
p2859
aa(lp2860
Vk. funn
p2861
aa(lp2862
Vanne revere
p2863
aVann revere
p2864
aa(lp2865
Vgeorge manning
p2866
aa(lp2867
Vharold schachter
p2868
aa(lp2869
Vjoseph springer
p2870
aa(lp2871
Vwilliam t. martin
p2872
aa(lp2873
Vjack robinson
p2874
aa(lp2875
Vspencer austrian
p2876
aa(lp2877
Vben barzman
p2878
aa(lp2879
Vharold koppelman
p2880
aa(lp2881
Vmattie l woodson
p2882
aa(lp2883
Vjoseph hittleman
p2884
aa(lp2885
Vcarl hanson
p2886
aVcarl swanson
p2887
aa(lp2888
Vgeorge lafortune
p2889
aa(lp2890
Vprokop j prokop
p2891
aa(lp2892
Vgeorge newsorne
p2893
aa(lp2894
Vmarie calloway
p2895
aa(lp2896
Vmr. robbins
p2897
aa(lp2898
Vdavid amarigio
p2899
aa(lp2900
Vmr. wright
p2901
aa(lp2902
Vmidge asslin
p2903
aa(lp2904
Vjean lees
p2905
aa(lp2906
Vjack wetherwax
p2907
aa(lp2908
Vnell higman
p2909
aa(lp2910
Vjohn milkovitch
p2911
aa(lp2912
Vgeorgia burns
p2913
aa(lp2914
Vcarl foreman
p2915
aa(lp2916
Vclara walden
p2917
aa(lp2918
Vfrank tarloff
p2919
aa(lp2920
Vdavid leeds
p2921
aa(lp2922
Vwilliam esterman
p2923
aVwilliam b. esterman
p2924
aa(lp2925
Vjoe charlotte darling adams
p2926
aVcharlotte darling adams
p2927
aa(lp2928
Vdorothy. connelly
p2929
aa(lp2930
Vpaul cline
p2931
aa(lp2932
Vpatricia lewis
p2933
aa(lp2934
Vjames walker
p2935
aa(lp2936
Vhilda geller
p2937
aa(lp2938
Vdorothy w. douglas
p2939
aa(lp2940
Vjohn leech
p2941
aa(lp2942
Vsidney davenport
p2943
aa(lp2944
Vcarin kinzel
p2945
aa(lp2946
Velizabeth wilson
p2947
aa(lp2948
Vjames anderson
p2949
aa(lp2950
Val bigford
p2951
aa(lp2952
Vsamuel evens
p2953
aa(lp2954
Vjulius sorbonya
p2955
aa(lp2956
Vwilliam winston
p2957
aa(lp2958
Vrevels. cayton
p2959
aa(lp2960
Vverna mcallister
p2961
aa(lp2962
Vjoy williams
p2963
aa(lp2964
Vmr. maurice murphy
p2965
aVmaurice murphy
p2966
aa(lp2967
Vmrs. donath
p2968
aa(lp2969
Vwarren batterson
p2970
aa(lp2971
Vmorris feder
p2972
aa(lp2973
Vnicholas c bartlett
p2974
aa(lp2975
Vwilliam bender
p2976
aa(lp2977
Vdavid saunders
p2978
aa(lp2979
Vclare burnstein
p2980
aa(lp2981
Vwendell h. furry
p2982
aa(lp2983
Vbill ingham
p2984
aa(lp2985
Vbetty seklen
p2986
aVbetty selden
p2987
aa(lp2988
Vroy thompson
p2989
aa(lp2990
Vmike gates
p2991
aa(lp2992
Vmarjorie robinson
p2993
aa(lp2994
Velizaltetb wilson
p2995
aa(lp2996
Vbeatrice huff
p2997
aa(lp2998
Vann v boatin
p2999
aa(lp3000
Vmabel mitchell
p3001
aa(lp3002
Vkathleen griffitli
p3003
aa(lp3004
Vgertrude lane
p3005
aa(lp3006
Vkaren morley
p3007
aa(lp3008
Vbillie wachter
p3009
aa(lp3010
Vnemmy sparks
p3011
aa(lp3012
Vclara riebej
p3013
aa(lp3014
Vjohn saari
p3015
aa(lp3016
Vsam edelsteiu
p3017
aa(lp3018
Vrichard o. boyer
p3019
aa(lp3020
Vdorothy comingore
p3021
aa(lp3022
Vmerle work
p3023
aa(lp3024
Vrichard younce
p3025
aa(lp3026
Vhugh bryson
p3027
aa(lp3028
Vanne kinney
p3029
aa(lp3030
Vlouis ivens
p3031
aa(lp3032
Vbill williams
p3033
aa(lp3034
Vsol kaplan
p3035
aa(lp3036
Vjames m. simmons
p3037
aa(lp3038
Vjohn poziomek
p3039
aa(lp3040
Velliott sullivan
p3041
aa(lp3042
Vleo t physician
p3043
aa(lp3044
Vjules carson
p3045
aa(lp3046
Vrobert decormier
p3047
aa(lp3048
Vshirley ellis
p3049
aa(lp3050
Vrobert gladnick
p3051
aa(lp3052
Val saxton
p3053
aa(lp3054
Vmartin mackie
p3055
aa(lp3056
Vrose most
p3057
aa(lp3058
Vmarge price
p3059
aa(lp3060
Vedward dmytryk
p3061
aa(lp3062
Vclariua michelson
p3063
aa(lp3064
Vgerry schlein
p3065
aa(lp3066
Vring lardner
p3067
aa(lp3068
Vjoe koide
p3069
aa(lp3070
Vjoseph mccann
p3071
aa(lp3072
Valbert legard
p3073
aa(lp3074
Vvictor killian
p3075
aa(lp3076
Vjessie sehneiderinan
p3077
aa(lp3078
Vm. william pomerance
p3079
aVwilham pomerance
p3080
aVwilliam pomrerince
p3081
aVwilliam pomerance
p3082
aa(lp3083
Vjack manley
p3084
aa(lp3085
Vsidney weinbaum
p3086
aa(lp3087
Visadore reivich
p3088
aa(lp3089
Vrobert lieberman
p3090
aa(lp3091
Vdewey garrett
p3092
aa(lp3093
Vmax posey
p3094
aa(lp3095
Vnaomi workman
p3096
aa(lp3097
Vmatt pellman
p3098
aa(lp3099
Vsam parks
p3100
aa(lp3101
Vdavid kinkead
p3102
aa(lp3103
Vferdinand c smith
p3104
aa(lp3105
Vjoan place
p3106
aa(lp3107
Vsidney benson
p3108
aVsid benson
p3109
aa(lp3110
Vgertrude fuller
p3111
aa(lp3112
Vvida drown
p3113
aa(lp3114
Vgilman rosenblatt
p3115
aa(lp3116
Vpaul trivers
p3117
aa(lp3118
Vmary morrison
p3119
aa(lp3120
Vjosephine. woods
p3121
aa(lp3122
Vnorman byrne
p3123
aa(lp3124
Vjames jones
p3125
aa(lp3126
Vmrs. willard parker bereniece baldwin
p3127
aa(lp3128
Vkenneth roberts
p3129
aa(lp3130
Vrose banks
p3131
aa(lp3132
Vpaul brooks
p3133
aa(lp3134
Vdonald o. spencer
p3135
aa(lp3136
Vmortimer offner
p3137
aa(lp3138
Vleona martin
p3139
aa(lp3140
Vdavid wolfe
p3141
aa(lp3142
Vholly perlman
p3143
aa(lp3144
Vallen matthews
p3145
aa(lp3146
Vharry campbell
p3147
aVharry ca1m1phell
p3148
aa(lp3149
Vjan jeffries
p3150
aa(lp3151
Vmrs. nathan gold
p3152
aa(lp3153
Vcharles j newspaperman
p3154
aa(lp3155
Vcalif hayward
p3156
aa(lp3157
Vdr. lester
p3158
aa(lp3159
Velizabeth leech
p3160
aa(lp3161
Vjoe young
p3162
aa(lp3163
Vmildred perl
p3164
aa(lp3165
Vbill ellis
p3166
aa(lp3167
Vinez hearn
p3168
aa(lp3169
Vgeorge hallgren
p3170
aVgeorge hellgren
p3171
aa(lp3172
Vjuanita wheeler
p3173
aa(lp3174
Vsolomon haas
p3175
aa(lp3176
Vjean pestana
p3177
aa(lp3178
Velizabeth moos
p3179
aa(lp3180
Vmiriam cliassen
p3181
aa(lp3182
Vwilhelmina laughery
p3183
aa(lp3184
Vleonard patterson
p3185
aa(lp3186
Vlionel berman
p3187
aa(lp3188
Vlouise koczyalka
p3189
aa(lp3190
Vmrs. robert morrell
p3191
aa(lp3192
Vmarguerite. sanford
p3193
aa(lp3194
Vherbert feay
p3195
aa(lp3196
Vnina parris
p3197
aa(lp3198
Vjack edith macia
p3199
aa(lp3200
Vcharlotte hull
p3201
aa(lp3202
Vloretta starvus
p3203
aa(lp3204
Vdesired ball
p3205
aa(lp3206
Vbob rasland
p3207
aa(lp3208
Votis a hood
p3209
aa(lp3210
Vann nechemias
p3211
aa(lp3212
Vedwin schoenfeld
p3213
aa(lp3214
Vmary mclntyre
p3215
aa(lp3216
Vgene morse
p3217
aa(lp3218
Vpauline wanson townsend
p3219
aVpauline s. townsend
p3220
aVpauline townsend
p3221
aa(lp3222
Vgeorge markham
p3223
aa(lp3224
Vcharles lindouf
p3225
aa(lp3226
Vnorman smith
p3227
aa(lp3228
Valfred levitt
p3229
aa(lp3230
Vjane trivers
p3231
aa(lp3232
Vcasey gurewitz
p3233
aa(lp3234
Vmorrie smolan
p3235
aa(lp3236
Vbill gandall
p3237
aa(lp3238
Vruth yanover
p3239
aa(lp3240
Vrobert arnold
p3241
aa(lp3242
Vlynn hames
p3243
aa(lp3244
Valan philbrick
p3245
aa(lp3246
Vned young
p3247
aa(lp3248
Vedward gewirts
p3249
aa(lp3250
Vlangston hughes
p3251
aa(lp3252
Vthese organizations communists
p3253
aa(lp3254
Vcharles gainor
p3255
aa(lp3256
Vmarjorie. potts
p3257
aa(lp3258
Vfrank beye
p3259
aa(lp3260
Vbob reed
p3261
aa(lp3262
Vroy erwin
p3263
aa(lp3264
Vesther j wagner
p3265
aVesther jerry wagner
p3266
aa(lp3267
Vcharles killinger
p3268
aa(lp3269
Vharold wells
p3270
aa(lp3271
Vperry dunson
p3272
aa(lp3273
Vrobert travis
p3274
aa(lp3275
Vsaul wachter
p3276
aa(lp3277
Vtommy downs
p3278
aa(lp3279
Vpaul r zllsel
p3280
aa(lp3281
Vherman beilan
p3282
aa(lp3283
Vgeorge bassmal
p3284
aVgeorge bassman
p3285
aa(lp3286
Vjames branca
p3287
aa(lp3288
Vmarc lawrence
p3289
aa(lp3290
Vmr. kaplan
p3291
aa(lp3292
Vdick jones
p3293
aa(lp3294
Vida rothstein
p3295
aa(lp3296
Vhelen tenney
p3297
aa(lp3298
Vhenrietta palley
p3299
aVhenrietta pally
p3300
aa(lp3301
Vedward goodlaw
p3302
aa(lp3303
Vharry tarnoff
p3304
aa(lp3305
Vpauline epstein
p3306
aa(lp3307
Vgoldie bromberg
p3308
aa(lp3309
Vlucy arnold
p3310
aa(lp3311
Vjoe brandt
p3312
aa(lp3313
Vmollie penkovosky
p3314
aa(lp3315
Vmax silver
p3316
aa(lp3317
Vceorge shanta
p3318
aa(lp3319
Vcedric h belfrage
p3320
aa(lp3321
Vfrank sykes
p3322
aa(lp3323
Vedwin davis
p3324
aa(lp3325
Vmortimer w pomerance
p3326
aa(lp3327
Vjoseph aidlin
p3328
aa(lp3329
Vedwina pomerance
p3330
aa(lp3331
Vemil freed
p3332
aa(lp3333
Vleo townsend
p3334
aa(lp3335
Vmiriam brooks
p3336
aa(lp3337
Vdorothy loeb
p3338
aa(lp3339
Vbill lifsee
p3340
aa(lp3341
Vedith holm sond
p3342
aa(lp3343
Vjay moss
p3344
aa(lp3345
Vpreston hill
p3346
aa(lp3347
Vjohn delgado
p3348
aa(lp3349
Vmartin hall
p3350
aa(lp3351
Vjoseph klein
p3352
aa(lp3353
Vandrew mays
p3354
aa(lp3355
Vgeorgia backus
p3356
aa(lp3357
Vmabel wilson
p3358
aa(lp3359
Vjames dow
p3360
aa(lp3361
Vkathleen goldman
p3362
aa(lp3363
Vsam moore
p3364
aa(lp3365
Vhenderson gates
p3366
aa(lp3367
Vleo selfrid
p3368
aa(lp3369
Vlouis mcmullen
p3370
aa(lp3371
Vdorothy zadow
p3372
aa(lp3373
Vlillith james
p3374
aVlilith james
p3375
aa(lp3376
Vann beiswenger
p3377
aa(lp3378
Vharold hecht
p3379
aa(lp3380
Viva anthony
p3381
aa(lp3382
Vclarence sanders
p3383
aa(lp3384
Vdoreen holtz
p3385
aa(lp3386
Vharold buchman
p3387
aa(lp3388
Vmargaret maltz
p3389
aa(lp3390
Vlillian jones
p3391
aa(lp3392
Vart wolstenholme
p3393
aa(lp3394
Vbess taffel
p3395
aa(lp3396
Va englehart
p3397
aa(lp3398
Vmrs. wepman
p3399
aa(lp3400
Vcapt. ward tompkins
p3401
aa(lp3402
Vgene hammond
p3403
aa(lp3404
Vjack nedelman
p3405
aa(lp3406
Vgeorge gorchoff
p3407
aa(lp3408
Vhorace pratt
p3409
aa(lp3410
Vhy fireman
p3411
aa(lp3412
Vfelix miller
p3413
aa(lp3414
Vmichael dworkin
p3415
aa(lp3416
Vbernadette doyle
p3417
aa(lp3418
Vmax weiss
p3419
aa(lp3420
Vsamuel m kaplan
p3421
aa(lp3422
Vcharles walters
p3423
aa(lp3424
Vhope smith
p3425
aa(lp3426
Vjohn nowak
p3427
aa(lp3428
Vpeter lyon
p3429
aVpete lyon
p3430
aVpete lyons
p3431
aa(lp3432
Vambur salt
p3433
aa(lp3434
Vpauline. lauber
p3435
aVpauline lauber
p3436
aa(lp3437
Vemmett teague
p3438
aa(lp3439
Vjohn lawson
p3440
aVjohn h lawson
p3441
aa(lp3442
Vsidney barclay
p3443
aa(lp3444
Vjoe bernstein
p3445
aa(lp3446
Vbarta numovna
p3447
aa(lp3448
Vestelle foreman
p3449
aa(lp3450
Vsulzberger junior high
p3451
aa(lp3452
Vmaureen ryan
p3453
aa(lp3454
Vhenry meyers
p3455
aa(lp3456
Vmr. black
p3457
aa(lp3458
Vfrances tandy
p3459
aa(lp3460
Vevelyn fargo
p3461
aa(lp3462
Vguy endore
p3463
aa(lp3464
Vfred rinaldo
p3465
aa(lp3466
Vtom brown
p3467
aa(lp3468
Vben margolis
p3469
aa(lp3470
Vhenry jansen
p3471
aa(lp3472
Vfrank stepanchenko
p3473
aa(lp3474
Vrobert scott
p3475
aa(lp3476
Vmrs. lowenfeb
p3477
aa(lp3478
Vleo bigelman
p3479
aa(lp3480
Voleta o'connor
p3481
aa(lp3482
Velizabeth. augustine
p3483
aa(lp3484
Varthur newman
p3485
aa(lp3486
Vbob roberts
p3487
aVbob robert
p3488
aa(lp3489
Vrose rosenberg
p3490
aVreis rosenberg
p3491
aa(lp3492
Valex greenherg
p3493
aa(lp3494
Vrather party
p3495
aa(lp3496
Vwilliam michelson
p3497
aa(lp3498
Vlem harris
p3499
aa(lp3500
Vabe gelbart
p3501
aa(lp3502
Vsophia salit
p3503
aa(lp3504
Vsilvia richards
p3505
aa(lp3506
Vsandra young
p3507
aa(lp3508
Vwilliam z. foster
p3509
aa(lp3510
Vhelen winter
p3511
aa(lp3512
Vf. martin
p3513
aa(lp3514
Vpat amato
p3515
aa(lp3516
Vjohn edmiston
p3517
aa(lp3518
Vabraham lin
p3519
aa(lp3520
Vkatherine lynch
p3521
aa(lp3522
Vsteve simmons
p3523
aa(lp3524
Vjean johnson
p3525
aa(lp3526
Vleo rossman
p3527
aa(lp3528
Vpaul henley
p3529
aa(lp3530
Vcharles pfeiffer
p3531
aa(lp3532
Vandreas dinam
p3533
aa(lp3534
Vlewis miller
p3535
aa(lp3536
Vclara davis
p3537
aa(lp3538
Vcharles daggett
p3539
aa(lp3540
Vmrs. sam ornitz
p3541
aa(lp3542
Vevelyn howard
p3543
aa(lp3544
Vjohn matsuto
p3545
aa(lp3546
Velliot maraniss
p3547
aa(lp3548
Vgeorge bratoff
p3549
aa(lp3550
Vmartin chancey
p3551
aa(lp3552
Vfrank parsons
p3553
aa(lp3554
Vmrs. richard criley
p3555
aa(lp3556
Vwalter christie
p3557
aa(lp3558
Vbella v. dodd
p3559
aa(lp3560
Vnathan jacobson
p3561
aa(lp3562
Vrobert bush
p3563
aa(lp3564
Vherman waldman
p3565
aa(lp3566
Vstetson junior
p3567
aa(lp3568
Vesther soler
p3569
aa(lp3570
Vmrs. pieper
p3571
aa(lp3572
Vjules abercauph
p3573
aa(lp3574
Vinirs. alvah bessie
p3575
aa(lp3576
Velsie monjar
p3577
aa(lp3578
Vfred dutner
p3579
aa(lp3580
Vmr. prokop
p3581
aa(lp3582
Vwilliam glenn
p3583
aa(lp3584
Vlou. schneiderman
p3585
aa(lp3586
Vstanley waxman
p3587
aa(lp3588
Vralph izzard
p3589
aa(lp3590
Vflora webster
p3591
aa(lp3592
Vjay riibiu
p3593
aa(lp3594
Vedith sharpe
p3595
aa(lp3596
Vrose hobart
p3597
aa(lp3598
Vlouise moss
p3599
aa(lp3600
Vgeorge edwards
p3601
aa(lp3602
Vharry bridges
p3603
aa(lp3604
Vsam rizzo
p3605
aa(lp3606
Vmanning johnson
p3607
aa(lp3608
Vmax chait
p3609
aa(lp3610
Veddie pietrowski
p3611
aa(lp3612
Vfanny lehman
p3613
aa(lp3614
Vjohn hell
p3615
aa(lp3616
Vcarl brandt
p3617
aVcarl grant
p3618
aa(lp3619
Vfrank novak
p3620
aa(lp3621
Vjoseph bezenhoffer
p3622
aa(lp3623
Vleon katzen
p3624
aa(lp3625
Vfrederick reynolds
p3626
aa(lp3627
Vharry rich
p3628
aa(lp3629
Vpasco soso
p3630
aa(lp3631
Vlibby corngold
p3632
aa(lp3633
Vjeff corey
p3634
aa(lp3635
Vlucy warren
p3636
aa(lp3637
Vglen showerman
p3638
aa(lp3639
Vgeorge sandy
p3640
aa(lp3641
Valice smith
p3642
aa(lp3643
Vlillian gerber
p3644
aa(lp3645
Vsonya solotoy
p3646
aVsonya solatoy
p3647
aa(lp3648
Vdorothy k. funn
p3649
aa(lp3650
Vhelen demarco
p3651
aa(lp3652
Vleopold atlas
p3653
aa(lp3654
Vglenda sullivan
p3655
aa(lp3656
Vdave himinelstein
p3657
aa(lp3658
Vnick daniels
p3659
aa(lp3660
Vmargaret gruen
p3661
aa(lp3662
Vmike fersick
p3663
aa(lp3664
Vlarry parks
p3665
aa(lp3666
Vshirley fields
p3667
aa(lp3668
Vann ganley
p3669
aa(lp3670
Vfoss baker
p3671
aa(lp3672
Vevelyn hanson
p3673
aa(lp3674
Vruby heide
p3675
aa(lp3676
Vmrs. sidney buch
p3677
aa(lp3678
Vmrs. eugene
p3679
aa(lp3680
Vmr. tobey
p3681
aa(lp3682
Vharry judis
p3683
aVharry jidis
p3684
aa(lp3685
Vgeorge morris
p3686
aa(lp3687
Vrex wheelock
p3688
aa(lp3689
Vrobert louis stevenson school
p3690
aa(lp3691
Vmarvin gladstone
p3692
aa(lp3693
Vfred williams
p3694
aa(lp3695
Vlibby hilherman
p3696
aVlibby hilberman
p3697
aa(lp3698
Vsimon moskalik
p3699
aa(lp3700
Vdonald henderson
p3701
aa(lp3702
Vjean rand
p3703
aa(lp3704
Vmichael frank
p3705
aa(lp3706
Vrudy baker
p3707
aa(lp3708
Vmiriam holtz
p3709
aa(lp3710
Vwalter stack
p3711
aa(lp3712
Vsam mcghee
p3713
aa(lp3714
Vwalter scott dunn
p3715
aa(lp3716
Vdr. reznick
p3717
aa(lp3718
Vpaul mcvey
p3719
aa(lp3720
Veva lapin
p3721
aa(lp3722
Vrobert black
p3723
aa(lp3724
Vmrs. bob roberts
p3725
aa(lp3726
Vruth poison
p3727
aa(lp3728
Valvah bessie
p3729
aa(lp3730
Vmrs. roy thompson
p3731
aa(lp3732
Vnorman levinson
p3733
aa(lp3734
Vbarrows dunham
p3735
aa(lp3736
Val lannon
p3737
aa(lp3738
Valbert blumberg
p3739
aa(lp3740
Vhattie johnson
p3741
aa(lp3742
Vcarl hacker
p3743
aa(lp3744
Vjane callender
p3745
aa(lp3746
Vdave silverberg
p3747
aa(lp3748
Vsteve oleksink
p3749
aa(lp3750
Vbill danzig
p3751
aa(lp3752
Vkapf maurice
p3753
aa(lp3754
Vmrs. lou lou rosser
p3755
aa(lp3756
Vleo m. hurvich
p3757
aa(lp3758
Vmrs. otis mcray
p3759
aa(lp3760
Vaaron bindman
p3761
aa(lp3762
Volga zenchuck
p3763
aa(lp3764
Vnathan w margolis
p3765
aa(lp3766
Vcharles spencer
p3767
aa(lp3768
Vhulda j flynn
p3769
aa(lp3770
Vsteve murdock
p3771
aa(lp3772
Vjack fox i
p3773
aVjack fox
p3774
aa(lp3775
Vjoe dennis
p3776
aa(lp3777
Vearl phillips
p3778
aa(lp3779
Varchie brown
p3780
aa(lp3781
Velizabeth faragoh
p3782
aa(lp3783
Vdarling adams
p3784
aa(lp3785
Vjacob mindel
p3786
aa(lp3787
Vmaurice raph
p3788
aVmaurice rapf
p3789
aa(lp3790
Vmrs. john edith
p3791
aa(lp3792
Vgeorge altman
p3793
aa(lp3794
Vsylvia elfenbein
p3795
aa(lp3796
Vgeorge stathis
p3797
aa(lp3798
Vlou amster
p3799
aa(lp3800
Vglass glassgold
p3801
aa(lp3802
Vkicliard goodwin
p3803
aa(lp3804
Vlaurie blankfort
p3805
aa(lp3806
Vflo goodman
p3807
aa(lp3808
Vdr. mendell m. krieger
p3809
aa(lp3810
Vnathan rosen
p3811
aa(lp3812
Vwilliam t. parry
p3813
aa(lp3814
Vesther goodman
p3815
aa(lp3816
Vjerome chodorov
p3817
aa(lp3818
Vedward strong
p3819
aa(lp3820
Vmrs. peter martin
p3821
aa(lp3822
Vmadeline lee
p3823
aa(lp3824
Vdickson p. hill
p3825
aa(lp3826
Vmike obermier
p3827
aa(lp3828
Vian hunter
p3829
aa(lp3830
Vgus browne
p3831
aa(lp3832
Vcalvin goodman
p3833
aa(lp3834
Vhoke higdon
p3835
aa(lp3836
Vlouis terkel
p3837
aa(lp3838
Vfrank cestare
p3839
aa(lp3840
Vjohn porter
p3841
aa(lp3842
Vjack palmquist
p3843
aa(lp3844
Vwillie schulz
p3845
aa(lp3846
Vsam sperling
p3847
aa(lp3848
Vcyril endfield
p3849
aVcy endfield
p3850
aa(lp3851
Vpauline l finn
p3852
aa(lp3853
Vphil bard
p3854
aa(lp3855
Vwilliam wolff
p3856
aa(lp3857
Vsara geyer
p3858
aa(lp3859
Vmrs. irving
p3860
aa(lp3861
Vverne piazza
p3862
aa(lp3863
Vbaldwin locomotive
p3864
aa(lp3865
Vharold oakerly
p3866
aa(lp3867
Vdavid jenkins
p3868
aa(lp3869
Vrose dreyfus
p3870
aa(lp3871
Vrosalind freud
p3872
aa(lp3873
Vsarah oilman
p3874
aa(lp3875
Vjack chassen
p3876
aa(lp3877
Virvin richter
p3878
aa(lp3879
Vmrs. howland cham
p3880
aa(lp3881
Vroy cones
p3882
aa(lp3883
Veugene parker
p3884
aa(lp3885
Vmorris zuckman
p3886
aa(lp3887
Vnorman canright
p3888
aa(lp3889
Vsamuel stember
p3890
aa(lp3891
Vgail knappen
p3892
aa(lp3893
Vjohn edward cooke
p3894
aa(lp3895
Vnina ingham
p3896
aa(lp3897
Vida pratt
p3898
aa(lp3899
Vdavida franchia
p3900
aVdavida franchi
p3901
aa(lp3902
Vfaye mcdonnell
p3903
aa(lp3904
Vmargaret e. forsyth
p3905
aa(lp3906
Vann kelly
p3907
aa(lp3908
Vjohn bright
p3909
aa(lp3910
Vrena dodd
p3911
aa(lp3912
Vkenneth arnold
p3913
aa(lp3914
Vn. y.
p3915
aa.