(dp0
S'Goodman, Benny'
p1
(lp2
VAnne Kinney
p3
asS'Walden, Clara'
p4
(lp5
VMrs. Mischa WaMen
p6
aVPauline S. Townsend
p7
asS'Price,Jake'
p8
(lp9
VWilliam D. Ames
p10
asS'Donath, Ludwig'
p11
(lp12
VLee J. Cobb
p13
asS'Karson, Charles'
p14
(lp15
VEdith   Macia
p16
asS'Guarnaccia, Elizabeth'
p17
(lp18
VHerbert A. Philbrick
p19
asS'Hearn, Inez'
p20
(lp21
VMrs. Cleveland Hearn
p22
aVCharles D. Blodgett
p23
asS'Gilbert, Ed'
p24
(lp25
VAdams
p26
asS'Peck, Trudy'
p27
(lp28
VHarold Hecht
p29
asS'McGovney, Ruth.'
p30
(lp31
VRuth McGov
p32
aVDickson P. HiU
p33
asS'Curtis, Paul'
p34
(lp35
VDavid A. Lang
p36
asS'Witkowski, Bert'
p37
(lp38
VEdith Macia
p39
asS'Chapman, Clarice'
p40
(lp41
VMrs. Tom Chapman
p42
aVSol Shor
p43
aVLeopold Atlas
p44
asS'Roberts,   Bob'
p45
(lp46
VDavid A. Lang
p47
asS'Numovna, Barta'
p48
(lp49
VAnne Kinney
p50
aVLeRoy Herndon
p51
aVRichard Byrd Lewis
p52
asS'Salemson, Harold'
p53
(lp54
VShor
p55
aVDoug
p56
asS'Henderson, Donald'
p57
(lp58
VManning Johnson
p59
asS'Cole, Beatrice Lubitz'
p60
(lp61
VPauline S. Townsend
p62
asS'McGinty, Leona'
p63
(lp64
VMrs. Howland Cham
p65
aVAnne Kinney
p66
a(lp67
VMrs. Howland Cham
p68
aVLou Rosser
p69
aasS'Friedman, Fanya'
p70
(lp71
VAnne Kinney
p72
asS'Reynolds, Mrs. Bella'
p73
(lp74
VBella Lewitzky
p75
asS'Dorenz, Charles'
p76
(lp77
VNicholas Campas
p78
aVJack Davis
p79
aVJohn Mills Davis
p80
asS'Selig, Gertrude'
p81
(lp82
VAnne Kinney
p83
asS'Kalman, Ted'
p84
(lp85
VBertha Grover
p86
aVWilliam D. Ames
p87
asS'Schweukmyer, Frieda'
p88
(lp89
VNicholas Campas
p90
aVJack Davis
p91
asS'Barlow, Edward'
p92
(lp93
VDickson P. Hill
p94
aVBertha Grover
p95
asS'Woods, Harrie'
p96
(lp97
VDickson   P. Hill
p98
asS'Goldstein,         Nathan'
p99
(lp100
VJohn Mills Davis
p101
aVSamuel Evens
p102
asS'McCormiek, LaRne'
p103
(lp104
VAnne Kinney
p105
asS'Pomerance, William'
p106
(lp107
VPauline S. Townsend
p108
aVRobert Rossen
p109
asS'Brown, Archie.'
p110
(lp111
VRobert Gladnick
p112
asS'Lien, Gene'
p113
(lp114
VDickson P. Hill
p115
aVMary E. P. Bradsher
p116
asS'Dobbs, Ben'
p117
(lp118
VLou Rosser
p119
asS'Oppenheimer, Frank'
p120
(lp121
VAnne Kinney
p122
asS'Wilhy, Celia'
p123
(lp124
VSilvia Richards
p125
aVDouglas
p126
asS'Klein, Harold'
p127
(lp128
VNicholas Campas
p129
aVJohn Mills Davis
p130
aVSamuel Evens
p131
asS'Finklestein, Moe'
p132
(lp133
VBella V. Dodd
p134
asS'Woods, Hilda'
p135
(lp136
VMrs. Harrie        Woods
p137
aVDickson P.     Hill
p138
asS'Freed, Tassia'
p139
(lp140
VMrs. Emil Freed
p141
aVAnne Kinney
p142
asS'Carufo, Jessie'
p143
(lp144
VBabbette Lang
p145
asS'Frederick, Jean'
p146
(lp147
VMrs. George Van Fred
p148
aVMary   E. P. Bradsher
p149
asS'Howe, Ann'
p150
(lp151
VAnne Kinney
p152
aVDee
p153
asS'Lusher, Bernard'
p154
(lp155
VMr. Lusher
p156
asS'Walker. Freddie'
p157
(lp158
VBertha Grover
p159
asS'Arden, Betty'
p160
(lp161
VAnne Kinney
p162
asS'Lockett, Albert'
p163
(lp164
VAnne Kinney
p165
asS'Akeson, Virgil'
p166
(lp167
VDorothy K. Funn
p168
asS'Young, Molly'
p169
(lp170
VMrs. Bill Young
p171
aVSilvia Richards
p172
asS'Oleksink, Steve'
p173
(lp174
VEdith Macia
p175
asS'Andren, Carl'
p176
(lp177
VMr. Andren
p178
aVDistribu
p179
asS'Pmcell, Gertrude'
p180
(lp181
VPaul Benedict                                   Mar. 12
p182
aVMr. Radin
p183
asS'Solomon, Lou'
p184
(lp185
VDavid A. Lang
p186
aVPauline S. Townsend
p187
aVRobert Rossen
p188
asS'Blaisdell, Ballis'
p189
(lp190
VMr. Blaisdell
p191
asS'Deaoon. Thomas'
p192
(lp193
VMr. Deacon
p194
aVSulzberger         Junior       High
p195
asS'Brown, Cleophas'
p196
(lp197
VWilliam D. Ames
p198
aVCharles D. Blodgett
p199
asS'Klein, Minna'
p200
(lp201
VMrs. Herbert Klein
p202
aVAnne Kinney
p203
asS'Scott,   Janet'
p204
(lp205
VJohn Mills Dayis
p206
aVSamuel Evens
p207
asS'Hughes, Langston'
p208
(lp209
VManning Johnson
p210
asS'Reichman, Charles'
p211
(lp212
VEdith Macia
p213
asS'McMichael, Rev. Jack'
p214
(lp215
VR.                           Benjamin Gitlow
p216
aVLeonard Patterson
p217
aVManning Johnson
p218
asS'Leeds, David'
p219
(lp220
VDavid Amarigio
p221
asS'Rohr, Joe'
p222
(lp223
VEdith Macia
p224
asS'Doran, Sadie'
p225
(lp226
VJack Davis
p227
asS'Manley, Katrina'
p228
(lp229
VMrs. Jack Manley
p230
aVDickson P. Hill
p231
aVBertha Grover
p232
asS'Soler, Esther'
p233
(lp234
VMrs.             William Soler
p235
aVMrs. Soler
p236
aVWilliam B. Mann School
p237
asS'Marrow, Ozzo'
p238
(lp239
VBertha Grover
p240
asS'Blacklock, Charles'
p241
(lp242
VCharles D. Blodgett
p243
asS'Froelich,   Anne'
p244
(lp245
VShor
p246
aVLeopold Atlas
p247
asS'Stein, Peter'
p248
(lp249
VMr. Stein
p250
asS'James, Lilith'
p251
(lp252
VMrs. Dan James
p253
aVPauline S. Townsend
p254
aVBart Lytton
p255
aVRobert Rossen
p256
a(lp257
VMrs. Dan James
p258
aasS'Eobbins, Herbert'
p259
(lp260
VMr. Robbins
p261
asS'Richardson, Jean'
p262
(lp263
VAnne Kinney
p264
asS'Strawn, Arthur'
p265
(lp266
VLeopold Atlas
p267
asS'Faragoh, Francis Edward'
p268
(lp269
VReis Rosenberg
p270
aVEdward Dmytryk
p271
asS'Kinkead, David'
p272
(lp273
VDickson P.   Hill
p274
aVDee
p275
asS'Coleman, Edna Rosenberg'
p276
(lp277
VDorothy K. Funn
p278
aVEdna Rosenberg
p279
asS'Edwards, George'
p280
(lp281
VDickson P. Hill
p282
aVCharles D. Blodgett
p283
aVWilliam D. Ames
p284
asS'Mcintosh, Anna'
p285
(lp286
VCharles D. Blodgett
p287
asS'Hopkins, Pauline'
p288
(lp289
VOwen    Silvia Richards
p290
aVRoy Erwin
p291
aVCarin Kinzel
p292
asS'Roberson, Mrs. Doris'
p293
(lp294
VWalker                   Dickson   P. Hill
p295
asS'Hatcliigan, Donald'
p296
(lp297
VNicholas Campas
p298
aVJack Davis
p299
aVN. Y.                                      John Mills Davis
p300
asS'Tobey, Florence'
p301
(lp302
VMr. Clarence Tobey
p303
aVDickson P. Hill
p304
aVWilliam D. Ames
p305
aVMrs.         Tobey
p306
aVErnest L. Seymour
p307
aVLou Rosser
p308
asS'Pesko, Amalia.'
p309
(lp310
VAmalia   Pesko  Crago
p311
asS'Chakin, George'
p312
(lp313
VRobert Gladnick
p314
asS'Levine, Seth'
p315
(lp316
VDorothy K. Funn
p317
asS'Hoff, Sid'
p318
(lp319
VRobert Gladnick
p320
asS'Kelly, Jane Dawson'
p321
(lp322
VEdith Macia
p323
asS'Gordon, Alice Wilson'
p324
(lp325
VAlice Wil
p326
asS'Nolan, Mary'
p327
(lp328
VMrs. Frank Nolan
p329
aVCharlotte Darling Adams
p330
asS'Finkelstein, Jeannette'
p331
(lp332
VDorothy K. Funn
p333
asS'Dicho, John'
p334
(lp335
VEdith Macia
p336
asS'Young, Sandra'
p337
(lp338
VEdith Macia
p339
asS'Blake, George'
p340
(lp341
VJohn Mills Davis
p342
asS'Smith, Jack'
p343
(lp344
VJames Kendall
p345
asS'Undjus,               Margaret'
p346
(lp347
VMargaret    Benjamin Gitlow
p348
asS'Brooks, Lawn'
p349
(lp350
VEdith Macia
p351
asS'Boykin, Ernest'
p352
(lp353
VCharles D. Blodgett
p354
asS' Posey, Max'
p355
(lp356
VLou Rosser
p357
asS'Smith, Mrs. Eleanor'
p358
(lp359
VBertha Grover
p360
aVCharles D. Blodgett
p361
asS'Ornitz, Sadie'
p362
(lp363
VMrs. Sam Ornitz
p364
aVBabbette Lang
p365
asS'White, Xaorai'
p366
(lp367
VMary   E. P. Bradsher
p368
asS'Rich, Harry'
p369
(lp370
VNicholas Campas
p371
aVJack Davis
p372
asS'Murdock, Steve'
p373
(lp374
VCharles D. Blodgett
p375
asS'Vorhaus, Bernard'
p376
(lp377
VShor
p378
aVRobert Rossen
p379
asS'Elfont, Sophia'
p380
(lp381
VMiss      Ell
p382
aVStetson Junior
p383
asS'Herman. David'
p384
(lp385
VNicholas Campas
p386
aVJack Davis
p387
aVJack Davis
p388
aVDavid Herman
p389
asS'Simonsgard,  Sarah'
p390
(lp391
VAnne  Kinney
p392
asS'Oats, Frank'
p393
(lp394
VAnne Kinney
p395
aVOleta
p396
aVOleta      O'Connor           David A. Lang
p397
aVAnne Kinney
p398
asS'Roberts, Stanley'
p399
(lp400
VRobert Rossen
p401
aVEdna Rosen
p402
aVColeman
p403
aVSarah Oilman
p404
asS'Stapp, John'
p405
(lp406
VPauline S. Townsend
p407
asS'Taft,   Anna'
p408
(lp409
VRobert Gladnick
p410
asS'Revere,    Ann'
p411
(lp412
VLarry Parks
p413
aVLee J. Cobb
p414
asS'Albertson, William'
p415
(lp416
VNicholas Campas
p417
aVJack Davis
p418
aVCostas                                         Nicholas Campas
p419
aVJack Davis
p420
asS'Bard, Phil'
p421
(lp422
VRobert Gladnick
p423
asS'Hanson, Carl'
p424
(lp425
VCharles D. Blodgett
p426
aVBertha Grover
p427
aVWilliam D. Ames
p428
asS'Williams, Harry'
p429
(lp430
VLou Rosser
p431
asS'Hacker, Carl'
p432
(lp433
VNicholas Campas
p434
aVJack Davis
p435
asS'Hesse, Sig'
p436
(lp437
VDickson P. Hill
p438
asS'Lieberson, Anya'
p439
(lp440
VMrs. Eddie Fisher
p441
aVAnne Kinney
p442
asS'Levy, Arthur L'
p443
(lp444
VMr. Levy
p445
asS'Gorchoff, George'
p446
(lp447
VRobert Gladnick
p448
asS'Lane, Gertrude'
p449
(lp450
VJack Davis
p451
aVJack Davis
p452
asS'Smith. Ferdinand'
p453
(lp454
VJames Kendall
p455
asS'Gordon, Emily'
p456
(lp457
VMrs. Julian Gordon
p458
aVAnne Kinney
p459
aVGordon
p460
asS'Goldblatt, Louis'
p461
(lp462
VLou Rosser
p463
aVLewis    Miller
p464
asS'Amarigio, David'
p465
(lp466
VRobert Gladnick
p467
aVDavid Leeds
p468
asS'Dorenz, Arnold'
p469
(lp470
VNicholas Campas
p471
aVMr. Dorenz
p472
asS'Poziomek, John'
p473
(lp474
VJohn                 John Mills Davis
p475
aVSamuel Evens
p476
asS'Flynn, Hulda Johnson'
p477
(lp478
VMcGarvey Robert Gorham Davis
p479
asS'Naboisek, Herbert'
p480
(lp481
VMary   E. P. Bradsher
p482
asS'Cole, Lester'
p483
(lp484
VRobert Rossen
p485
aVDavid A. Lang
p486
aVSol Shor
p487
aVLeopold Atlas
p488
asS'Riebej. Clara'
p489
(lp490
VMrs. Brahdy
p491
aVDorothy K. Fiinu
p492
aVMaurice                                  Dorothy K. Fu-n
p493
asS'Shepro, Anna'
p494
(lp495
VMrs. Harry Shepro
p496
aVLeRoy Herndon
p497
aVRichard Byrd Lewis
p498
asS'Anhattzer, Arthur'
p499
(lp500
VEdith Macia
p501
asS'Stever, Lettie'
p502
(lp503
VJorome Robbins
p504
asS'Nelson. Margaret'
p505
(lp506
VMrs. Steve Nelson
p507
aVLou Rosser
p508
asS'Rairland, Clara'
p509
(lp510
VMary    E. P. Bradsher
p511
asS'Grossman, Mildred'
p512
(lp513
VDorothy K. Funn
p514
asS'Cliassen, Miriam'
p515
(lp516
VMrs. Jack Chassen
p517
aVEdith Macia
p518
asS'Eagle, Godine'
p519
(lp520
VMrs.            Eugene Eagle
p521
aVDickson   P. Hill
p522
asS'Bodkin, Wesley'
p523
(lp524
VDickson P. Hill
p525
aVCharles D. Blodgett
p526
asS'Newman, Arthur'
p527
(lp528
VDorothy K. Funn
p529
aVN. Y.
p530
asS'Schlein, Gerry'
p531
(lp532
VMrs. Charles Schlein
p533
aVLee   J.   Cobb
p534
asS'Hovey, Tamara'
p535
(lp536
VTammie
p537
aVSilvia Richards
p538
asS'Lee, Madeline'
p539
(lp540
VJerome Robbins
p541
asS'Cloner, Sam'
p542
(lp543
VDarling Adams
p544
asS'Grant, Morton'
p545
(lp546
VRobert Rossen
p547
aVDavid A. Lang
p548
aVShor
p549
aVLeopold Atlas
p550
asS'Endfield, Cyril'
p551
(lp552
VDavid A. Lang
p553
asS'Bradsher, Mary Elizabeth'
p554
(lp555
VMary Bradsher
p556
asS'Legard, Albert'
p557
(lp558
VCharles D. Blodgett
p559
asS'Black, Gladys'
p560
(lp561
VMrs. Robert                         Black
p562
aVCharles D. Blodgett
p563
aVBertha Grover
p564
aVWilliam D. Ames
p565
asS'Carey, Honor'
p566
(lp567
VMoxley                                  LeRoy Herndon
p568
aVRichard Byrd Lewis
p569
aVAnne Kinney
p570
aVAime Kinney
p571
aVCarey
p572
asS'Ingham, Nina'
p573
(lp574
VMrs.       Bill   Ingham
p575
aVAnne Kinney
p576
asS'Schneiderman,          William'
p577
(lp578
VDavid A. Lang
p579
aVAnne Kinney
p580
asS'James,   Dan'
p581
(lp582
VDavid A. Lang
p583
aVPauline S. Townsend
p584
aVBart Lytton
p585
asS'Shelf,   Sanders'
p586
(lp587
VAnne Kinney
p588
asS'Reivich. Isadore'
p589
(lp590
VMr. Reivich
p591
asS'Tandy, Frances'
p592
(lp593
VDickson   P. Hill
p594
asS'Lowenfels, Lillian'
p595
(lp596
VMrs. Walter
p597
aVMrs. Lowenfeb
p598
asS'Harper, Annette'
p599
(lp600
VCarin Kinzel
p601
aVDwight Hauser
p602
asS'Cook, Ernest'
p603
(lp604
VCharles D. Blodgett
p605
asS'Carson, Jules'
p606
(lp607
VAnne Kinney
p608
asS'Warren, Lucy'
p609
(lp610
VEdith Macia
p611
aVJohn                                    Pauline S. Townsend
p612
asS'Belton,    Lem'
p613
(lp614
VDorothy K. Funn
p615
asS'Hilherman, Libby'
p616
(lp617
VMrs. Dave Hilber
p618
asS'Moore, Mrs. Patricia'
p619
(lp620
VPauline S. Townsend
p621
asS'Dunn, Robert W'
p622
(lp623
VArnaud                       David A. Lang
p624
aVRoland W. Kibbee
p625
asS'Melia, Mrs. Carmen'
p626
(lp627
VCharles D. Blodgett
p628
asS'Freud, Rosalind'
p629
(lp630
VEdith Macia
p631
asS'Mallof, Helen'
p632
(lp633
VAnne Kinney
p634
asS'Kramberg, Sam'
p635
(lp636
VNicholas Campas
p637
asS'Bargeman,   Bertha'
p638
(lp639
VMrs.         Marvin David A. Lang
p640
asS'Kyer, Charlotte'
p641
(lp642
VDickson P.   Hill
p643
asS'Clarke, Angela'
p644
(lp645
VCarin Kinzel
p646
asS'Winter, Ella'
p647
(lp648
VDavid A. Lang
p649
aVManning Johnson
p650
asS'Dow, James'
p651
(lp652
VRoland W. Kibbee
p653
asS'Biedenkapp, Fred'
p654
(lp655
VManning Johnson
p656
asS'Dinam, Andreas'
p657
(lp658
VPauline S. Townsend
p659
asS'Michelson, William'
p660
(lp661
VJohn Mills Davis
p662
asS'Wales, Beulah'
p663
(lp664
VAnne Kinney
p665
asS'Campbell, Robert'
p666
(lp667
VDorothy K. Funn
p668
asS'Lannon, Al'
p669
(lp670
VDorothy K. Funn
p671
a(lp672
VJames Kendall
p673
aasS'Siegel,    Sylvia'
p674
(lp675
VHarold Hecht
p676
aVSol Shor
p677
asS'Wheeler. Donald Niven'
p678
(lp679
VElizabeth Bentley
p680
aVMr. Wheeler
p681
aVU. S.
p682
asS'Mayer, Jean'
p683
(lp684
VAnne Kinney
p685
asS'Yarman, Mike'
p686
(lp687
VNicholas Campas
p688
asS'Black, Robert'
p689
(lp690
VCharles D. Blodgett
p691
aVBertha Grover
p692
aVWilliam D. Ames
p693
asS'Jarrico, Paul'
p694
(lp695
VLang
p696
aVMax Benoff
p697
aVRobert Rossen
p698
asS'Crago, Joe'
p699
(lp700
VJohn Mills Davis
p701
aVSamuel Evens
p702
asS'Gelbart, Abe'
p703
(lp704
VWilliam T. Martin
p705
aVIsadore Amdur
p706
aVNorman Levinson
p707
asS'Philbrick,    Alan'
p708
(lp709
VHarry J. Marks
p710
asS'Obermier, Mike'
p711
(lp712
VNicholas Campas
p713
aVJack Davis
p714
aVPaul                                    Jack Davis
p715
asS'Carson. Jules'
p716
(lp717
VCharles D. Blodgett
p718
asS'Lubin, Louis J'
p719
(lp720
VJohn Mills Davis
p721
aVSamuel Evens
p722
asS'Bottcher, William'
p723
(lp724
VJohn Mills Davis
p725
aVSamuel Ehens
p726
asS'Tanner, Harry'
p727
(lp728
VBabbette Lang
p729
asS'Howard, Maurice'
p730
(lp731
VDarling Adams
p732
asS'Peterson, Hjalmar'
p733
(lp734
VDarling Adams
p735
asS'Griffitli. Kathleen.'
p736
(lp737
VMrs. Kathleen   Griffith Hee
p738
asS'Wachter, Saul'
p739
(lp740
VWilliam D. Ames
p741
asS'McMullen, Martha'
p742
(lp743
VMrs. Dickson P. Hill
p744
aVLouis McMullen
p745
asS'Hudson, Roy.'
p746
(lp747
VManning Johnson
p748
asS'Party. Rather'
p749
(lp750
VRossen
p751
aVRobert Gladnick
p752
aVMr. Gladnick
p753
asS'Hammond, Gene'
p754
(lp755
VMary   E. P. Bradsher
p756
asS'Anthony, Vern'
p757
(lp758
VEdith Macia
p759
asS'Goldstein,      Mary'
p760
(lp761
VEdith Macia
p762
aVMar
p763
aVMr.     Goldstein
p764
asS'Arguimbau, Lawrence'
p765
(lp766
VWilliam T. Martin
p767
aVMassachusetts                  Isadore Amdur
p768
aVNorman Levinson
p769
asS'Blumberg, Dorothy'
p770
(lp771
VMrs. Al Blum
p772
aVDorothy K. Funn
p773
asS'Klein, Joseph.'
p774
(lp775
VJoseph    Nicholas Campas
p776
asS'Fox, Ernest'
p777
(lp778
VJames Kendall
p779
asS'Williams, Fred'
p780
(lp781
VBertha Grover
p782
asS'Maddow, Ben'
p783
(lp784
VPauline   S.   Townsend
p785
asS'Gerber, Serrill'
p786
(lp787
VEdith Macia
p788
aVLou Rosser
p789
a(lp790
VLou Rosser
p791
aVMr. Gerber
p792
aasS'Rosenfeld, Paul'
p793
(lp794
VPauline     S.   Townsend
p795
asS'Rossen, Sue'
p796
(lp797
VMrs. Robert Rossen
p798
aVPauline     S.   Townsend
p799
asS'Lazar, Jack'
p800
(lp801
VEdith Macia
p802
asS'Stice, Cliff'
p803
(lp804
VEdith Macia
p805
asS'Bush, Rose'
p806
(lp807
VAnne Kinney
p808
asS'Grossman, Aubrey'
p809
(lp810
VDickson P.   Hill
p811
aVDee
p812
aVLou Rosser
p813
aVMr. Grossman
p814
asS'Wald, Nat'
p815
(lp816
VRobert Gladnick
p817
asS'Mlnkus, Abraham'
p818
(lp819
VLeRoy Herndon
p820
aVRichard Byrd Lewis
p821
aVAnne Kinney
p822
asS'Stanley,    Emma'
p823
(lp824
VMrs. Al Stanley
p825
aVDickson P.   Hill
p826
asS'Waldreen, Herman'
p827
(lp828
VHerman Waldman
p829
aVDavid    Wolfe
p830
asS'Winebrenner, Dolph'
p831
(lp832
VAnne Kinney
p833
asS'Gordon, Max'
p834
(lp835
VNicholas Campas
p836
aVJack Davis
p837
asS'Vidaver, Matt'
p838
(lp839
VSilvia Richards
p840
asS'Frederick, George Van'
p841
(lp842
VDickson   P. Hill
p843
aVMary   E. P. Bradsher
p844
asS'Roberson, Mason'
p845
(lp846
VCharles D. Blodgett
p847
asS'Taylor, Shirley'
p848
(lp849
VMrs. William Taylor
p850
aVDorothy K. Funn
p851
asS'Hultgren, Wayne'
p852
(lp853
VDickson P. Hill
p854
aVWilliam D. Ames
p855
asS'Oser, Ruth'
p856
(lp857
VBabbette Lang
p858
asS'Hill, Preston'
p859
(lp860
VLou Rosser
p861
asS'Delgado. John'
p862
(lp863
VCharles D. Blodgett
p864
asS'Bromberg, Goldie'
p865
(lp866
VMrs.    J.       Edward Pauline      S.   Townsend
p867
asS'Biberman, Edward'
p868
(lp869
VZachary Schwartz
p870
aVHarold Hecht
p871
aVDavid A. Lang
p872
aVDarling Adams
p873
asS'Lees, Jean'
p874
(lp875
VBabbette Lang
p876
asS'Perlman, Git'
p877
(lp878
VMrs. Maurice                     Edith Macia
p879
asS'McClosky, Joe'
p880
(lp881
VEdith Macia
p882
asS'Sanford, John'
p883
(lp884
VShor
p885
aVLeopold Atlas
p886
aVPauline S. Townsend
p887
asS'Johnson, William S'
p888
(lp889
VDorothy K. Funn
p890
asS'Danzig, Bill'
p891
(lp892
VCharles D. Blodgett
p893
asS'Morgan, John'
p894
(lp895
VCharles D. Blodgett
p896
asS'Sandy, George'
p897
(lp898
VAnne Kinney
p899
asS'Branca, James'
p900
(lp901
VDorothy K. Funn
p902
asS'Perloff,     David'
p903
(lp904
VMr. Perloff
p905
aVAbraham           Lincoln
p906
asS'West, Lawrence'
p907
(lp908
VAnne Kinney
p909
asS'Weil, Everett'
p910
(lp911
VPauline   S.       Townsend
p912
asS'OlelvSiuk, Tillie'
p913
(lp914
VEdith Macia
p915
asS'Greenstein, William'
p916
(lp917
VMr. Green
p918
asS'Manoff, Marjorie.'
p919
(lp920
VGregor
p921
asS'Young, Nat.'
p922
(lp923
VNat Wald
p924
asS'Fleury, Beruyce Polifka'
p925
(lp926
VMrs. Fleury
p927
asS'McCombe, Daniel'
p928
(lp929
VMr.      Mc
p930
asS'Bartlett,                                               Nicholas Campas'
p931
(lp932
VMr. Bartlett
p933
asS'Goldistein, Evelyn'
p934
(lp935
VMrs. Nathan Gold
p936
aVJohn Mills Davis
p937
aVSamuel Evens
p938
asS'Rappaport, David'
p939
(lp940
VArpad               Nicholas Campas
p941
aVDavid Rappaport
p942
aVJack Davis
p943
aVJohn Mills Davis
p944
aVSamuel Evens
p945
asS'Fuller, Lester'
p946
(lp947
VLeopold Atlas
p948
aVRobert Rossen
p949
asS'Boyagian, Anita'
p950
(lp951
VAnita            Edith Macia
p952
asS'Phillips, Earl'
p953
(lp954
VDickson P.   Hill
p955
asS'Gonzales, Jack'
p956
(lp957
VMary   E. P. Bradsher
p958
asS'Maltz, Margaret'
p959
(lp960
VMrs. Albert Maltz
p961
aVBabbette Lang
p962
asS'Bright, John'
p963
(lp964
VRobert Rossen
p965
aVMr. Rossen
p966
aVHarold Hecht
p967
aVJohn Bright
p968
aVDavid A. Lang
p969
aVRoland W. Kibbee
p970
asS'Wellnian, Ruth H'
p971
(lp972
VEdith Macia
p973
asS'Kaplan, Samuel Meyer'
p974
(lp975
VThomas Delaney
p976
aVMr. Kaplan
p977
aVMr. Delaney
p978
aVMr. Kaplan
p979
aVRuth
p980
asS'Nixon, Russell Arthur'
p981
(lp982
VDorothy K. Funn
p983
aVSipser
p984
aVMr. Sipser
p985
asS'Baker, Rudy'
p986
(lp987
VJoe Koide
p988
asS'Mazer, Herman'
p989
(lp990
VEdith Macia
p991
asS'Goodman, Esther'
p992
(lp993
VLou Rosser
p994
asS'Johnson, Ralph'
p995
(lp996
VCharles D. Blodgett
p997
aVBerke
p998
asS'Hood, Dean'
p999
(lp1000
VLou   Rosser
p1001
asS'Williams, Bill'
p1002
(lp1003
VWilliam D. Ames
p1004
asS'Flacks, Mildred'
p1005
(lp1006
VMrs. David Flacks
p1007
aVDorothy K. Funn
p1008
asS'Fascism. Also he'
p1009
(lp1010
VMr. KuNziQ
p1011
aVMr. Patterson
p1012
aVMr. KuNziG
p1013
aVMr. PATTERSON
p1014
aVMcMichael
p1015
aVMr. KuNZiG
p1016
aVMr. Chairman
p1017
aVMcMichael
p1018
aVRichard McMichael
p1019
aVMcMichael
p1020
aVManning
p1021
aVJohn
p1022
aVMcMichael
p1023
aVMartha
p1024
aVJohn Edmiston
p1025
aVManning Johnson
p1026
aVLeonard Patterson
p1027
aVMartha
p1028
aVJack R. McMichael
p1029
asS'Putter,                                                     William T'
p1030
(lp1031
VN. Y.
p1032
asS'Strong,    Edward'
p1033
(lp1034
VDorothy K. Funn
p1035
asS'Itskowitz, Harry Gordon'
p1036
(lp1037
VHarry  Gordon
p1038
asS'Todd, Louise.'
p1039
(lp1040
VAnne Kinney
p1041
asS'Kelly, Mrs. Ora'
p1042
(lp1043
VCharles D. Blodgett
p1044
asS'Bengal, Ben'
p1045
(lp1046
VPauline S. Townsend
p1047
asS'Busk, Charlie'
p1048
(lp1049
VBertha Grover
p1050
asS'Cohen, Robert'
p1051
(lp1052
VDorothy K. Funn
p1053
a(lp1054
VRobert Gladnick
p1055
aVServicio Informacion Militar
p1056
aasS'Jonas, Hallie'
p1057
(lp1058
VCarin Kinzel
p1059
asS'Kinzel, Carin'
p1060
(lp1061
VMrs. Abe Burrows
p1062
asS'Bomser, Edith'
p1063
(lp1064
VEditli Macia
p1065
aVNat                                  Edith Macia
p1066
asS'Kaplan, Sol'
p1067
(lp1068
VMr. Kaplan
p1069
asS'Harris, Lou'
p1070
(lp1071
VRobert Rossen
p1072
aVRoland W. Kibbee
p1073
asS'Margolis, Nathan Walter'
p1074
(lp1075
VMr. Margolis
p1076
asS'Gardner, Helen'
p1077
(lp1078
VAnne Kinney
p1079
asS'Becker, Zara'
p1080
(lp1081
VRichard Byrd Lewis
p1082
aVAnne Kinney
p1083
asS'Englehardt, Jack'
p1084
(lp1085
VEdith Macia
p1086
asS'Smolan, Morrie'
p1087
(lp1088
VCharles H. Garrigues
p1089
aVAnne Kinney
p1090
asS'Landall, Edith'
p1091
(lp1092
VEdith Macia
p1093
aVDavid A. Lang
p1094
aVS. Townsend
p1095
aVRoland W. Kibbee
p1096
aVRobert Rossen
p1097
asS'Howard, Evelyn'
p1098
(lp1099
VMrs. Maurice How
p1100
asS'Chasson, Bob'
p1101
(lp1102
VLou Rosser
p1103
aVMr. Chasson
p1104
asS'Morse, Gene'
p1105
(lp1106
VRobert Gladnick
p1107
asS'Palley, Henrietta'
p1108
(lp1109
VAnne Kinney
p1110
asS'Warwick, Mrs. Gertrude'
p1111
(lp1112
VCharles D. Blodgett
p1113
aVBertha Grover
p1114
aVWilliam D. Ames
p1115
asS'Cayton, Revels'
p1116
(lp1117
VLou Rosser
p1118
asS'Beilan,   Herman'
p1119
(lp1120
VMr. Beilan
p1121
asS'Young, Ned'
p1122
(lp1123
VMr. Young
p1124
asS'Lahne, Selma'
p1125
(lp1126
VNicholas Campas
p1127
asS'Davis, Shelly'
p1128
(lp1129
VMrs. Clarence Davis
p1130
aVCharles D. Blodgett
p1131
asS'Grennard, Elliott'
p1132
(lp1133
VDavid A. Lang
p1134
asS'Keir,   Duncan'
p1135
(lp1136
VJames Kendall
p1137
aVMr. Keir
p1138
asS'Kaufman, IVIrs. Sarah'
p1139
(lp1140
VJohn Mills Davis
p1141
aVSchwartzman
p1142
aVSamuel Evens
p1143
asS'Wallace, Jane'
p1144
(lp1145
VJane    Wilson
p1146
aVJane Wilson
p1147
asS'Rossman, Leo'
p1148
(lp1149
VJames Kendall
p1150
asS'Perlman, Holly'
p1151
(lp1152
VEdith Macia
p1153
asS'Cohn, Bob'
p1154
(lp1155
VBob Cole
p1156
aVAnne Kinney
p1157
a(lp1158
VBob Cole
p1159
aVLou   Rosser
p1160
aasS'Gorney, Sondra'
p1161
(lp1162
VMrs. Jay Gorney
p1163
aVPauline S. Townsend
p1164
asS'Gregurek, Goldie'
p1165
(lp1166
VMrs. Frank Gregu
p1167
asS'Lehman, Lloyd'
p1168
(lp1169
VLou Rosser
p1170
aVDickson P. Hill
p1171
asS'Rinaldo, Marie.'
p1172
(lp1173
VMildred Benoff
p1174
aVPauline S. Townsend
p1175
asS'Williams, Joy'
p1176
(lp1177
VMrs. Gordon Williams
p1178
aVDickson P. Hill
p1179
aVCharles D. Blodgett
p1180
asS'Hunter, Ian'
p1181
(lp1182
VRobert Rossen
p1183
asS'Williams, Carl'
p1184
(lp1185
VErnest L. Seymour
p1186
asS' Bigelman, Leo'
p1187
(lp1188
VDennis Robert Rossen
p1189
aVAnne Kinney
p1190
aVPauline S. Townsend
p1191
asS' Bindley, Mary'
p1192
(lp1193
VEdith Macia
p1194
asS'Jacobson, Helen'
p1195
(lp1196
VJohn Mills Davis
p1197
asS'Beye, Frank'
p1198
(lp1199
VAnne Kinney
p1200
asS'Jacobs, Julius'
p1201
(lp1202
VDorothy K. Funn
p1203
asS'Pratt, Horace'
p1204
(lp1205
VEdith Macia
p1206
asS'Klein, Herbert'
p1207
(lp1208
VAnne Kinney
p1209
asS'Mrs. Funn has'
p1210
(lp1211
VMrs.                                                                Funnstated
p1212
aVMrs. Funn
p1213
asS'Adams, Mary Jane'
p1214
(lp1215
VEdith Macia
p1216
asS'Rasland, Bob'
p1217
(lp1218
VMary    E. P. Bradsher
p1219
asS'Partridge, Sid'
p1220
(lp1221
VCharles D. Blodgett
p1222
asS'Crowe, Neil'
p1223
(lp1224
VErnest L. Seymour
p1225
aVJames Kendall
p1226
asS'Sklar, George'
p1227
(lp1228
VDavid A. Lang
p1229
asS'Burrows, Ruth'
p1230
(lp1231
VPauline S. Townsend
p1232
asS'Norman, Billie'
p1233
(lp1234
VEdith Macia
p1235
asS'Sparks, Nemmy'
p1236
(lp1237
VLeopold Atlas
p1238
aVPauline S. Townsend
p1239
aVHarry J. Marks
p1240
asS'Siskin,   George'
p1241
(lp1242
VLou Rosser
p1243
asS'Wright, Arthur'
p1244
(lp1245
VSamuel Evens
p1246
aVMr. Wright
p1247
asS'Arnold, Kenneth'
p1248
(lp1249
VIsadore Amdur
p1250
asS'Moore, Sam'
p1251
(lp1252
VSilvia Richards
p1253
aVDwight Hauser
p1254
aVRoy Erwin
p1255
asS'Lynden, Richard'
p1256
(lp1257
VDick
p1258
aVLou Rosser
p1259
asS'Losey, Louise'
p1260
(lp1261
VMrs. Joseph Losey
p1262
aVPauline S. Townsend
p1263
aVLouise Moss
p1264
asS'Klein, Phil'
p1265
(lp1266
VDarling Adams
p1267
asS'Burns, Georgia'
p1268
(lp1269
VHarold Hecht
p1270
asS'Schirmer, Daniel Boone'
p1271
(lp1272
VHarry      J.   Marks
p1273
asS'Place, Joan'
p1274
(lp1275
VAnne Kinney
p1276
asS'Uris, Michael'
p1277
(lp1278
VDavid A. Lang
p1279
aVRobert Rossen
p1280
asS'Terry, Opal'
p1281
(lp1282
VMrs. Joe Terry
p1283
aVCharles D. Blodgett
p1284
asS'Meyers, Blackie'
p1285
(lp1286
VJames Kendall
p1287
asS'Pezman, Dorothy'
p1288
(lp1289
VAnne Kinney
p1290
asS'Schlipf, Paul'
p1291
(lp1292
VCharles D. Blodgett
p1293
asS'Shapiro, Leon'
p1294
(lp1295
VJohn Mills Davis
p1296
aVSamuel Evens
p1297
asS'Eastman, Philip Dey'
p1298
(lp1299
VPolifka Fleury
p1300
asS'Gordon, Harry'
p1301
(lp1302
VHarry   John Mills Davis
p1303
aVSamuel Evens
p1304
asS'Bailey, William J'
p1305
(lp1306
VJames Kendall
p1307
asS'Wolstenholme, Beckie'
p1308
(lp1309
VMrs. Art Wol
p1310
aVCharles D. Blodgett
p1311
asS'Mindlin, Eunice'
p1312
(lp1313
VDavid A. Lang
p1314
asS'Weber, Johnny'
p1315
(lp1316
VHarry J. Marks
p1317
asS'Chancey, Martin'
p1318
(lp1319
VDorothy K. Funn
p1320
asS'Grant,Dave'
p1321
(lp1322
VHarry   J.   Marks
p1323
asS'Richards, Robert'
p1324
(lp1325
VPauline S. Townsend
p1326
asS'Cokimbus, Ohio. As'
p1327
(lp1328
VByron Thornwell Darling
p1329
aVByron ThorwellDarling
p1330
aVDr. Bella V. Dodd
p1331
aVDr. Dodd
p1332
asS'Hearn, Cleveland'
p1333
(lp1334
VCharles D. Blodgett
p1335
asS'Chassen, Jack'
p1336
(lp1337
VEdith Macia
p1338
asS'Utrich,Harry'
p1339
(lp1340
VLou Rosser
p1341
aVAl Lannon
p1342
asS'Hall,Rob'
p1343
(lp1344
VDorothy K. Funn
p1345
asS'Emer, Fanny'
p1346
(lp1347
VEdith Macia
p1348
asS'Dawson, Sadie'
p1349
(lp1350
VMrs. Ernest Dawson
p1351
aVEdith Macia
p1352
asS'Backus, Georgia'
p1353
(lp1354
VMrs.            Hy   Alexander
p1355
aVCarin Kinzel
p1356
aVRobert Rossen
p1357
aVDwight Hauser
p1358
aVSilvia Richards
p1359
aVRoy Erwin
p1360
a(lp1361
VMrs. Hy Alexander
p1362
aasS'Stember, Samuel'
p1363
(lp1364
VRobert Gladnick
p1365
aVAbraham Lin
p1366
asS'Edises, Pele'
p1367
(lp1368
VCharles D. Blodgett
p1369
asS'Wacker, Charlotte'
p1370
(lp1371
VDorothy K. Funn
p1372
asS'Callender, Jane'
p1373
(lp1374
VEdith Macia
p1375
asS'Oliver, William E'
p1376
(lp1377
VAlice Bennett
p1378
aVUrcel Daniel
p1379
asS'Sullivan,Glenda'
p1380
(lp1381
VRobert Rossen
p1382
asS'Manley, Jack'
p1383
(lp1384
VDickson P. Hill
p1385
asS'Laughery, Wilhelmina'
p1386
(lp1387
VMary  E. P. Bradsher
p1388
aVBertha Grover
p1389
aVDickson P. Hill
p1390
aVWilliam D. Ames
p1391
asS'Karson, Morris'
p1392
(lp1393
VEdith   Macia
p1394
asS'Thomas, Estelle Naomi'
p1395
(lp1396
VMiss Thomas
p1397
asS'Velson, Irving'
p1398
(lp1399
VCharles                       Robert Gladnick
p1400
asS'Orr. Violet'
p1401
(lp1402
VLou Rosser
p1403
asS'Huebsch, Edward'
p1404
(lp1405
VDavid A. Lang
p1406
asS'Shepro, Harry'
p1407
(lp1408
VLeroy Herndon
p1409
aVRichard Byrd Lewis
p1410
aVAnne Kinney
p1411
asS'Yanish, Ann'
p1412
(lp1413
VMrs. Nat Tanish
p1414
aVDickson P. Hill
p1415
aVCharles D. Blodgett
p1416
aVWilliam D. Ames
p1417
aVBertha Grover
p1418
asS'Leonard, Charles'
p1419
(lp1420
VDavid A. Lang
p1421
aVBabbette Lang
p1422
asS'Bela, Mrs. Nicholas'
p1423
(lp1424
VShor
p1425
asS'Taffel, Bess'
p1426
(lp1427
VDavid A. Lang
p1428
aVLeopold Atlas
p1429
asS'Cowl, Margaret'
p1430
(lp1431
VMargaret Und
p1432
asS'Norman,       Bill'
p1433
(lp1434
VBella V. Dodd
p1435
aVSteve Miller
p1436
aVBella V. Dodd
p1437
aVRobert Gladnick
p1438
aVManning Johnson
p1439
asS'Gainor, Charles'
p1440
(lp1441
VDr. Gainor
p1442
asS'Kotick,     Mary'
p1443
(lp1444
VJohn Mills Davis
p1445
asS'Yates, Allen.'
p1446
(lp1447
VAnne Kinney
p1448
asS'Osman, Arthur'
p1449
(lp1450
VMr. Osman
p1451
aVMr. Paley
p1452
aVOifioe Workei
p1453
aVSamuel      C.                          Manning Johnson
p1454
aVGoldberg                                         Dorotli\u005c K. Funn
p1455
asS'Polki, John'
p1456
(lp1457
VLou Rosser
p1458
asS'Casluier, Milton'
p1459
(lp1460
VAnne Kinney
p1461
asS'Chodorov, Edward'
p1462
(lp1463
VJerome Robbins
p1464
asS'Wilson, Alice'
p1465
(lp1466
VMrs. Hy Gordon
p1467
aVRobert Gladnick
p1468
asS'Ward. Douglas Whitney'
p1469
(lp1470
VCharles D. Blodgett
p1471
asS'Bomser, Allan'
p1472
(lp1473
VEdith Macia
p1474
asS'Livingston, David'
p1475
(lp1476
VMr. Livingston
p1477
asS'Gannett, Betty'
p1478
(lp1479
VAnne Kinney
p1480
a(lp1481
VLou Rosser
p1482
aVA.                                          Lou Rosser
p1483
aasS'Oakerly. Harold'
p1484
(lp1485
VJames Kendall
p1486
asS'Robbins,   Ed'
p1487
(lp1488
VAnne Kinney
p1489
asS'Nadler, Morton'
p1490
(lp1491
VAnne Kinney
p1492
asS'Zllsel, Paul Rudolph'
p1493
(lp1494
VMr. Zilsel
p1495
asS'Wetherwax, Jack'
p1496
(lp1497
VAnne Kinney
p1498
asS'YouuK, Cone C'
p1499
(lp1500
VLou Rosser
p1501
asS'Peterson, Henry'
p1502
(lp1503
VDarling Adams
p1504
asS'Goodwin,     Sam'
p1505
(lp1506
VLou Rosser
p1507
asS'Schwarzbart, Elias'
p1508
(lp1509
VJohn Mills Davis
p1510
aVSamuel Evens
p1511
asS'Goodman, Becky'
p1512
(lp1513
VAnne Kinney
p1514
asS'Robinson, Jerome'
p1515
(lp1516
VJerome Rob
p1517
asS' Fargo, Evelyn'
p1518
(lp1519
VAnne Kinney
p1520
asS'McGrath, Thomas Matthew'
p1521
(lp1522
VMr. Mc
p1523
asS'Lewis, Veda'
p1524
(lp1525
VMrs. James Lewis
p1526
aVCharles D. Blodgett
p1527
asS'Taylor, William'
p1528
(lp1529
VDorothy K. Funn
p1530
asS'Bessie, INIrs. Alvah'
p1531
(lp1532
VLeopold Atlas
p1533
asS'Halperin, Israel'
p1534
(lp1535
VRobert Gorham Davis
p1536
aVGranville Hicks
p1537
aVDaniel J. Boorstin
p1538
aVWilliam T. Martin
p1539
aVLouis                                          Robert Gorham Davis
p1540
aVGranville Hicks
p1541
aVGeorge Mayberry
p1542
aVHerbert Robbins
p1543
asS'Blankfort, Laurie'
p1544
(lp1545
VDavid A. Lang
p1546
asS'Dimsdale, Howard'
p1547
(lp1548
VDavid A. Lang
p1549
aVSilvia Richards
p1550
asS'Foreman, Estelle'
p1551
(lp1552
VMrs. Carl Foreman
p1553
aVDavid A. Lang
p1554
aVBabbette Lang
p1555
asS'Cameron, Don'
p1556
(lp1557
VErnest                   L.   Seymour
p1558
asS'Tuttle, Tanya'
p1559
(lp1560
VMrs. Frank Tuttle
p1561
aVPauline S. Townsend
p1562
asS'Stone, Bert'
p1563
(lp1564
VAnne Kinney
p1565
asS'George, Harrison'
p1566
(lp1567
VAnne Kinney
p1568
a(lp1569
VJoe Koide
p1570
aasS'Moss, Jay'
p1571
(lp1572
VAnne Kinney
p1573
asS'Lewis. Al'
p1574
(lp1575
VAnne Kinney
p1576
aVRichard Byrd Lewis
p1577
asS'Spears, John'
p1578
(lp1579
VAnne Kinney
p1580
asS'Alexander, Hy'
p1581
(lp1582
VHarmon
p1583
aVCarin Kinzel
p1584
aVSilvia Kiohards
p1585
aVDwight Hauser
p1586
asS'Jeffrey, John'
p1587
(lp1588
VAnne Kinney
p1589
aVV. J.                          Harold Hecht
p1590
aVLeonard Patterson
p1591
asS'Friedburg, Saul'
p1592
(lp1593
VHarry J. Marks
p1594
aVMr. Friedburg
p1595
asS'Himinelstein, Dave'
p1596
(lp1597
VLou Rosser
p1598
asS'Bender, William'
p1599
(lp1600
VJohn Mills Davis
p1601
asS'Reynolds, John Henry'
p1602
(lp1603
VRobert Gorham Davis
p1604
aVWilliam T. Martin
p1605
aVNorman          Levinson
p1606
asS'Treuhaft. Decca'
p1607
(lp1608
VMrs. Robert Treu
p1609
aVDickson P. Hill
p1610
asS'Praeger, Stanley'
p1611
(lp1612
VPauline S. Townsend
p1613
aVBart Lytton
p1614
asS'Gold, Mike'
p1615
(lp1616
VJohn Mills Davis
p1617
asS'Carr, Clarence'
p1618
(lp1619
VNicholas Campas
p1620
aVJack Davis
p1621
asS'Bratoff, George'
p1622
(lp1623
VDickson P. Hill
p1624
asS'Olson, Rose'
p1625
(lp1626
VDorothy K. Funn
p1627
asS'Martin, Sandra'
p1628
(lp1629
VCharles D. Blodgett
p1630
asS'Handle, Reva'
p1631
(lp1632
VAnne Kinney
p1633
asS'Wilson,   Jane'
p1634
(lp1635
VJane Anne Kinney
p1636
aVWallace
p1637
aVLeRoy Herndon
p1638
asS'Gandall, Bill'
p1639
(lp1640
VRobert Gladnick
p1641
asS'Lanipell, Mrs. Millard'
p1642
(lp1643
VSilvia Richards
p1644
asS'Faragoh, Elizabeth'
p1645
(lp1646
VMrs. Francis Far
p1647
aVPauline S. Townsend
p1648
asS'Chown, Miriam'
p1649
(lp1650
VMrs. Paul Chown
p1651
aVDickson P. Hill
p1652
asS'Stone, Eugene R'
p1653
(lp1654
VCarin Kinzel
p1655
asS'Neville. Robert'
p1656
(lp1657
VMary  E. P. Bradsher
p1658
aVDickson P. Hill
p1659
aVWilliam D. Ames
p1660
asS'Kraft, Hyman Solomon'
p1661
(lp1662
VRobert Rossen
p1663
asS'Richter. Irvin'
p1664
(lp1665
VDorothy K. Funn
p1666
asS'Saul, Joe'
p1667
(lp1668
VJoseph    Spri
p1669
asS'Itskowitz.  Frances'
p1670
(lp1671
VMike" Gordon
p1672
aVFrances Gordon
p1673
asS'Oster, Morris'
p1674
(lp1675
VEdith IMncia
p1676
asS'Party. In 1944'
p1677
(lp1678
VHudson
p1679
aVHarrison George
p1680
aVEarl Browder
p1681
aVRoy Hudson
p1682
aVH. Jackson
p1683
aVRoy Hudson
p1684
aVGeorge Mink
p1685
asS'Jennings, Ruth'
p1686
(lp1687
VNicholas Campas
p1688
aVRuth Jennings
p1689
asS'Shefiard. Henry'
p1690
(lp1691
VManning
p1692
aVK. Funn
p1693
asS'Hedley, Jean'
p1694
(lp1695
VDickson P.   Hill
p1696
asS'Kramer, Harry'
p1697
(lp1698
VCharles D. Blodgett
p1699
asS'Adams, Joe'
p1700
(lp1701
VEdith Macia
p1702
asS'Kelly, Ora'
p1703
(lp1704
VCharles D. Blodgett
p1705
asS'Bush, Robert'
p1706
(lp1707
VDr. Bush
p1708
asS'Geyer,  Jacob'
p1709
(lp1710
VJack   Edith Macia
p1711
asS'Brand, Phoebe'
p1712
(lp1713
VMrs. Morris Carnov
p1714
aVLee J. Cobb
p1715
asS'Hood, Otis Archer'
p1716
(lp1717
VHerbert Philbrick
p1718
asS'Campbell, Harry'
p1719
(lp1720
VEdith Macia
p1721
asS'Kolker, Alexander'
p1722
(lp1723
VJohn Mills Davis
p1724
aVSamuel Evens
p1725
asS' Fisher,   Ed'
p1726
(lp1727
VEdith Macia
p1728
asS'Skadron, Mrs. Lillian'
p1729
(lp1730
VShor
p1731
asS'Roberts, Kenneth'
p1732
(lp1733
VCharles D. Blodgett
p1734
asS'Hall, Otto'
p1735
(lp1736
VManning Johnson
p1737
asS'Shire,   Henry'
p1738
(lp1739
VAnne Kinney
p1740
asS' Finn, Pauline Lauber'
p1741
(lp1742
VRobert Rossen
p1743
aVPauline Lauber
p1744
aVCarin Kinzel
p1745
aVPauline S. Townsend
p1746
asS'Hutchinson, Florence'
p1747
(lp1748
VDickson P. Hill
p1749
asS'White, Ann'
p1750
(lp1751
VEdith Macia
p1752
asS'Heltness, Al'
p1753
(lp1754
VAnne Kinney
p1755
asS'Robeson, Naomi'
p1756
(lp1757
VDwight Hauser
p1758
aVLeopold Atlas
p1759
asS'Dreyfus, Rose'
p1760
(lp1761
VEdith Macia
p1762
asS'Roberts, Marguerite'
p1763
(lp1764
VMrs. John San
p1765
aVLeRoy Herndon
p1766
aVDavid A. Lang
p1767
aVLeopold Atlas
p1768
aVPauline S. Townsend
p1769
aVRobert Rossen
p1770
asS'Franks, Frank'
p1771
(lp1772
VCharles D. Blodgett
p1773
asS'Zimet, Julian'
p1774
(lp1775
VDavid A. Lang
p1776
aVPauline S. Townsend
p1777
asS'Carnovsky, Mrs. Morris'
p1778
(lp1779
VAnne Kinney
p1780
asS'Oberkirch, Charles'
p1781
(lp1782
VJack Davis
p1783
aVN. Y.
p1784
asS'Hershey, Edith'
p1785
(lp1786
VEdith Macia
p1787
asS'Fuller, Gertrude'
p1788
(lp1789
VMrs. Lester Fuller
p1790
aVLeopold Atlas
p1791
asS'Perlman, Maurice'
p1792
(lp1793
VEdith Macia
p1794
asS'Bennett, Connie Lee'
p1795
(lp1796
VDavid A. Lang
p1797
asS'Hignian, Neil'
p1798
(lp1799
VAnne Kinney
p1800
asS'Green, Anne'
p1801
(lp1802
VMrs.      Howard Koch
p1803
aVLeopold Atlas
p1804
asS'Rutman, Robert'
p1805
(lp1806
VMr. Rutman
p1807
asS'Kliue, Rose'
p1808
(lp1809
VMrs. Joe Kline
p1810
aVEdith M.Mcia
p1811
asS'Leonard, Helen'
p1812
(lp1813
VMrs. Charles Leonard
p1814
aVDavid A. Lang
p1815
aVS. Townsend
p1816
aVBabbette Lang
p1817
asS'Yanish, Nat'
p1818
(lp1819
VDickson P. Hill
p1820
aVCharles D. Blodgett
p1821
aVWilliam D. Ames
p1822
aVBertha Grover
p1823
asS'Crawford, Matthew'
p1824
(lp1825
VMatt
p1826
aVLou Rosser
p1827
asS'March, Jane'
p1828
(lp1829
VAnne Kinney
p1830
asS'Hunter, Alice'
p1831
(lp1832
VMrs. Ian Hunter
p1833
aVPauline S. Townsend
p1834
asS'Sloan, Robert'
p1835
(lp1836
VHarold Hecht
p1837
asS'Frank, Michael'
p1838
(lp1839
VEdith Macia
p1840
asS' Hayward.        Calif.'
p1841
(lp1842
VDickson P. Hill
p1843
asS'Gordon,    Hy'
p1844
(lp1845
VRobert Gorham Davis
p1846
aVRobert Gladnick
p1847
asS'Wixman, Sam'
p1848
(lp1849
VAnne Kinney
p1850
asS'Polumbaum, Theodore S'
p1851
(lp1852
VMr. Polum
p1853
asS' Haven, Conn.'
p1854
(lp1855
VByron Thorwell Darling
p1856
aVPaul Zilseh Daniel Fine
p1857
aVTheodore S. Polumbaum
p1858
aVArthur L. Levy
p1859
aVHarold T. Woerner, Jr.
p1860
aVByron Thorwell Darling
p1861
aVWilliam Ted ISIartin
p1862
aVIsadore Amdur
p1863
aVMr. Amdur
p1864
asS'Brown, Archie'
p1865
(lp1866
VLou Rosser
p1867
aVCharles D. Blodgett
p1868
aVErnest L. Seymour
p1869
asS'Barnes, Carroll'
p1870
(lp1871
VDickson P. Hill
p1872
asS'Young, Joe'
p1873
(lp1874
VCharles  Gladstone
p1875
aVCharles Gladstone
p1876
asS'Calloway, Marie'
p1877
(lp1878
VBertha Grover
p1879
asS'Stone, Joseph.'
p1880
(lp1881
VJoseph Klein
p1882
asS'Telford, Sam'
p1883
(lp1884
VJames Kendall
p1885
aVS.    S.   Alice    H. Rice
p1886
asS'Wilenchick, Clement'
p1887
(lp1888
VMr. Wilen
p1889
asS'Brickman, Anna'
p1890
(lp1891
VJohn Mills Davis
p1892
aVSamuel Evens
p1893
asS'Chown, Paul'
p1894
(lp1895
VDickson P. Hill
p1896
aVCharles D. Blodgett
p1897
asS'Weitzman,    Max'
p1898
(lp1899
VHerbert Philbrick
p1900
asS' Blankfort, Henry'
p1901
(lp1902
VRobert Rossen
p1903
aVCarin Kinzel
p1904
aVDavid A. Lang
p1905
aVDwight Hauser
p1906
asS'Browne, Marsha'
p1907
(lp1908
VMrs. Gus Browne                 Edith Macia
p1909
aVBrown
p1910
asS'Canright,     Norman'
p1911
(lp1912
VCharles D. Blodgett
p1913
asS'Thompson, Leila'
p1914
(lp1915
VBertha Orover
p1916
aVDick.son P. Hill
p1917
aVCharles D. Blodgett
p1918
aVWilliam D. Ames
p1919
asS'May, Ruth McGovney'
p1920
(lp1921
VMrs.
p1922
asS'Minkus, Libby'
p1923
(lp1924
VMrs. Abe Minkus
p1925
aVAnne Kinney
p1926
asS'Young, Beniard'
p1927
(lp1928
VCharles D. Blodgett
p1929
asS'Workman, Naomi'
p1930
(lp1931
VRobert Gladnick
p1932
asS'Wood, James Feuton'
p1933
(lp1934
VDickson P. Hill
p1935
aVWilliam D. Ames
p1936
asS'Geller, Louis'
p1937
(lp1938
VJohn Mills Davis
p1939
aVSamuel Evens
p1940
aVNicholas Campas
p1941
aVMr.
p1942
aVCampas
p1943
aVMr. Geller
p1944
asS'Ayeroff, Joe'
p1945
(lp1946
VLou Rosser
p1947
asS'Heron. Lillian'
p1948
(lp1949
VEdith Macia
p1950
asS'Matlin, Zema'
p1951
(lp1952
VAnne Kinney
p1953
asS'Haas, Solomon'
p1954
(lp1955
VMr. Haas
p1956
asS'Barzman, Ben'
p1957
(lp1958
VRobert Rossen
p1959
aVPauline S. Townsend
p1960
asS' Cincinnati, Ohio.'
p1961
(lp1962
VJack Davis
p1963
aVNicholas Campas
p1964
aVJames McNamara
p1965
aVMr. McNamara
p1966
asS'Yates. Oleta O'
p1967
(lp1968
VConnor
p1969
aVLou Rosser
p1970
aVOleta O'Connor
p1971
asS'Wooley, Barbara'
p1972
(lp1973
VMrs. Angus Wooley
p1974
aVPauline      S.   Townsend
p1975
aVBarbara Roberts
p1976
asS'Anhattzer, Dorothy'
p1977
(lp1978
VEdith Macia
p1979
asS'Alexander, Mrs Hy'
p1980
(lp1981
VAllen
p1982
aVAllan
p1983
aVLouis
p1984
aVLewis
p1985
aVSilvia Richards
p1986
aVLeopold Atlas
p1987
aVPauline S. Townsend
p1988
aVAllen
p1989
aVAllan
p1990
aVMrs. Louis
p1991
aVLewis
p1992
aVSilvia Richards
p1993
asS'Rossen, Sam'
p1994
(lp1995
VLarry Parks
p1996
asS'Holtz, Miriam'
p1997
(lp1998
VAnne Kinney
p1999
asS'Coleman, Mr.'
p2000
(lp2001
VEdna Rosen
p2002
aVDorothy K. Funn
p2003
aVColeman
p2004
asS'Coe, Lee'
p2005
(lp2006
VCharles   D. Blodgett
p2007
aVWilliam   D. Ames
p2008
asS'Sanduw, Dildar'
p2009
(lp2010
VDickson P.  Hill
p2011
aVDildar Sandow
p2012
asS'Ball, Mrs. Desired'
p2013
(lp2014
VMrs. Ball
p2015
asS'Skadron, Bernard'
p2016
(lp2017
VShor
p2018
asS'Larkin, Catherine'
p2019
(lp2020
VBabbette Lang
p2021
asS'Forsyth, Margaret E'
p2022
(lp2023
VManning Johnson
p2024
asS'Benson, Sidney'
p2025
(lp2026
VTed Pauline     S.       Townsend
p2027
asS'Singer, Marcus'
p2028
(lp2029
VIsadore Amdur
p2030
asS'Tourney, James'
p2031
(lp2032
VJames Anne Kinney
p2033
aVJim Thorne
p2034
asS'Heide, Paul'
p2035
(lp2036
VLou Rosser
p2037
aVDickson P. Hill
p2038
aVCharles D. Blodgett
p2039
asS'Fuss, Oscar'
p2040
(lp2041
VAnne Kinney
p2042
asS'Fine, Daniel'
p2043
(lp2044
VPeter Bent
p2045
asS'Stanford, John'
p2046
(lp2047
VDavid A. Lang
p2048
asS'Meyers, Henry'
p2049
(lp2050
VDavid A. Lang
p2051
aVShor
p2052
aVRobert Rossen
p2053
asS'Most, Rose'
p2054
(lp2055
VAnne Kinney
p2056
asS'Bouslog, Harriet'
p2057
(lp2058
VDorothy K. Funn
p2059
asS'Salz. Morris'
p2060
(lp2061
VDorothy K. Fram
p2062
aVDoTotbj K. Fram
p2063
asS'Clifford, Bill'
p2064
(lp2065
VDickson   P. Hill
p2066
aVWilliam    D. Ames
p2067
asS'Fisher, Eddie'
p2068
(lp2069
VAnne Kinney
p2070
asS'Tashjian,       Vaughan A'
p2071
(lp2072
VAnne Kinney
p2073
asS'Stern, Bernhard'
p2074
(lp2075
VGranville Hicks
p2076
asS'Bick, Barbara'
p2077
(lp2078
VCharles D. Blodgett
p2079
asS'Ornitz,   Sam'
p2080
(lp2081
VDavid A. Lang
p2082
aVRoland W. Kibbee
p2083
aVBabbette Lang
p2084
asS'Jacobson, Nathan'
p2085
(lp2086
VErnest L. Seymour
p2087
asS'Cooper, Bert'
p2088
(lp2089
VRoy Erwin
p2090
asS'Chapman, Stanley'
p2091
(lp2092
VDorothy K. Funn
p2093
asS'Zadow, Dorothy'
p2094
(lp2095
VAnne Kinney
p2096
asS'Rotti,    Ann'
p2097
(lp2098
VAnn Roth Morgan
p2099
asS'Sillen,Samuel'
p2100
(lp2101
VRobert Gorham Davis
p2102
asS'Naboisek, June'
p2103
(lp2104
VMary   E. P. Bradsher
p2105
asS'Schulz, Willie'
p2106
(lp2107
VNicholas Campas
p2108
aVJack Davis
p2109
asS'Starvus, Loretta'
p2110
(lp2111
VDickson   P. Hill
p2112
aVWilliam D. Ames
p2113
aVLou Rosser
p2114
asS'Barry, Arthur'
p2115
(lp2116
VNicholas Campas
p2117
aVMr. Barry
p2118
asS'Gorney, Jay'
p2119
(lp2120
VPauline S. Townsend
p2121
aVBart Lytton
p2122
asS'Rosen, Nathan'
p2123
(lp2124
VIsadora Amdur
p2125
aVMassa
p2126
asS'Pate, Helen'
p2127
(lp2128
VMrs.        Bob Pate
p2129
aVEdith Macia
p2130
asS'Reich, William'
p2131
(lp2132
VCharles D. Blodgett
p2133
aVAl                                      Charles D. Blodgett
p2134
asS'Loeb, Dorothy'
p2135
(lp2136
VDorothy              Nicholas Campas
p2137
aVJoseph Klein
p2138
asS'Weinbaum. Sidney'
p2139
(lp2140
VLeRoy Herndon
p2141
asS'Kelleher, June'
p2142
(lp2143
VEdith Macia
p2144
asS'Braverman, Maurice'
p2145
(lp2146
VDorothy K. Funn
p2147
asS'Young, Bill'
p2148
(lp2149
VSilvia Richards
p2150
asS'Cline,   Paul'
p2151
(lp2152
VCharles H. Garrigues
p2153
aVAnne Kinney
p2154
asS'Handman, Nina'
p2155
(lp2156
VEdith Macia
p2157
asS'Selfrid, Leo'
p2158
(lp2159
VAnne Kinney
p2160
asS'Geller,   Hilda'
p2161
(lp2162
VMrs. Louis Geller
p2163
aVJohn Mills Davis
p2164
aVSamuel Evens
p2165
asS'Kanter, Shirley'
p2166
(lp2167
VPauline S. Townsend
p2168
asS'Carr, Joe'
p2169
(lp2170
VEdith Macia
p2171
asS'Darling, Byron Thorwell'
p2172
(lp2173
VRobert Bush
p2174
aVCharles Gainor
p2175
aVEdward Gewirts
p2176
asS'Seeliger,Lloyd'
p2177
(lp2178
VLou Rosser
p2179
asS'Darcy, Sam'
p2180
(lp2181
VLou Rosser
p2182
aVJoe Koide
p2183
asS'Smith. What is'
p2184
(lp2185
VMr. Springer
p2186
aVJoseph Springer
p2187
asS'Nolan, Edward'
p2188
(lp2189
VZachary Schwartz
p2190
aVListon                                      Benjamin Gitlow
p2191
asS'Perlin, Paul'
p2192
(lp2193
VDarling Adams
p2194
asS'Janis, Louise'
p2195
(lp2196
VPauline S. Townsend
p2197
asS'Bogner,    Max'
p2198
(lp2199
VAnne Kinney
p2200
asS'Roberts, Vera'
p2201
(lp2202
VMrs. Kenneth Roberts
p2203
aVCharles D. Blodgett
p2204
aVJames Kendall
p2205
aVMr. Robertson
p2206
asS'Gilliam,    James'
p2207
(lp2208
VWilliam D. Ames
p2209
asS'Tarus, Buddy'
p2210
(lp2211
VGeorge Tyne
p2212
asS'Attarian,     Aram'
p2213
(lp2214
VCharles D. Blodgett
p2215
asS'Grover, Bertha'
p2216
(lp2217
VBertha Grover
p2218
asS'Wood, Ida'
p2219
(lp2220
VDickson P. Hill
p2221
asS'Dworkin, Michael'
p2222
(lp2223
VJohn Mills Davis
p2224
aVSanuiel Evens
p2225
asS'Hee, Mrs. Kathleen'
p2226
(lp2227
VGriffith                             Charles D. Blodgett
p2228
asS'Izzard, Ralph'
p2229
(lp2230
VCharles D. Blodgett
p2231
asS'Bessie, Alvah'
p2232
(lp2233
VRobert Rossen
p2234
aVDavid A. Lang
p2235
aVLeopold Atlas
p2236
asS'Murphy, Maurice'
p2237
(lp2238
VRoland W. Kibbee
p2239
a(lp2240
VLou Rosser
p2241
aVMr.      Maurice Murphy
p2242
aasS'Welluian, Ted.'
p2243
(lp2244
VSidney Benson
p2245
asS'Michel, Josef'
p2246
(lp2247
VJoseph)                      Sol Shor
p2248
aVRobert Rossen
p2249
asS'Thorner, Molly'
p2250
(lp2251
VWilliam D. Ames
p2252
asS'Woods, Josephine.'
p2253
(lp2254
VJosephine  Woods     Eideuoff
p2255
asS'Wiena, Lena'
p2256
(lp2257
VEdith Macia
p2258
asS'Simousgard, Jens'
p2259
(lp2260
VAnne Kinney
p2261
asS'Mays, Andrew'
p2262
(lp2263
VBertha Grover
p2264
asS'Williams, Gordon'
p2265
(lp2266
VDickson P. Hill
p2267
aVCharles D. Blodgett
p2268
asS'Wolfe, David.'
p2269
(lp2270
VHerman Wald
p2271
asS'Fisher, Mrs.'
p2272
(lp2273
VEdith Macia
p2274
asS'Monjar, Elsie'
p2275
(lp2276
VLou Rosser
p2277
aVMiss Monjar
p2278
asS'Hinman,        Luke'
p2279
(lp2280
VRoland W. Kibbee
p2281
aVB.                                        Edith Macia
p2282
asS'Olson, Dorothy'
p2283
(lp2284
VSilvia Richards
p2285
aVJohn                                            Edith Macia
p2286
aVMrs. John                                       Edith
p2287
asS'Whitney, Lynn'
p2288
(lp2289
VRoy Erwin
p2290
aVCarin Kinzel
p2291
asS'Anton, Benjamin David'
p2292
(lp2293
VMr. Anton
p2294
asS'Offner,Mortimer'
p2295
(lp2296
VDavid A. Lang
p2297
aVSol Shor
p2298
asS'Frank, Richard'
p2299
(lp2300
VBella V. Dodd
p2301
asS'Keivetz, Jules'
p2302
(lp2303
VLou Rosser
p2304
asS'Raven. Bob'
p2305
(lp2306
VRobert Gladnick
p2307
asS'Wagner, Murry'
p2308
(lp2309
VMurray
p2310
aVDwight Hauser
p2311
asS'Wright, Arthur Orville'
p2312
(lp2313
VMr. Wright
p2314
aVBriggs
p2315
asS'Duarte, Charles Alfred'
p2316
(lp2317
VLou Rosser
p2318
asS'Saxton, Al'
p2319
(lp2320
VErnest L. Seymour
p2321
asS'Furry, Wendell H'
p2322
(lp2323
VRobert Gorham Davis
p2324
aVHarvard                                 Granville Hicks
p2325
aVWilliam T. Martin
p2326
asS'Parker, Herbert'
p2327
(lp2328
VNicholas Campas
p2329
asS'Ornitz, Louis'
p2330
(lp2331
VRobert Gladnick
p2332
aVN. Y.
p2333
asS'Batiste, Calvin'
p2334
(lp2335
VBertha Grover
p2336
asS'Hopkins,   Pauline'
p2337
(lp2338
VMrs.  Owen Vinson
p2339
asS'Pomerance, Edwina'
p2340
(lp2341
VDarling Adams
p2342
aVPauline S. Townsend
p2343
asS'Klare, Charles'
p2344
(lp2345
VMr. Klare
p2346
asS'Barzman, Norma'
p2347
(lp2348
VMrs. Ben Barzman
p2349
aVPauline S. Townsend
p2350
asS'Gerber, Lillian'
p2351
(lp2352
VMrs. Serrill Gerber
p2353
aVEdith Macia
p2354
asS'Lafferty, Mrs. Nori'
p2355
(lp2356
VDickson   P. Hill
p2357
asS'Robison, David'
p2358
(lp2359
VShor
p2360
asS'Morley, Hank'
p2361
(lp2362
VDarling Adams
p2363
asS'Rosser, Lou'
p2364
(lp2365
VMr. Rosser
p2366
asS'Claibourne, Ethel'
p2367
(lp2368
VMrs.     Sidney Clai
p2369
aVCharles D. Blodgett
p2370
asS'Ryan, Allen Lane'
p2371
(lp2372
VAnne Kinney
p2373
asS'Mr. Boorstin stated'
p2374
(lp2375
VMr. Boorstinalso
p2376
aVGranville Hicks
p2377
aVMr. Boorstin
p2378
aVMr. Davis
p2379
asS'Eisler, Joe'
p2380
(lp2381
VCharles D. Blodgett
p2382
aVBertha Grover
p2383
asS'Brown, Bimbo'
p2384
(lp2385
VDickson P.      Hill
p2386
aVMary     E. P. Bradsher
p2387
asS'Wooley, Angus'
p2388
(lp2389
VPauline      S.   Townsend
p2390
asS'Redner, Marian'
p2391
(lp2392
VMarian    Mary    E. P. Bradsher
p2393
asS'Wolstenholme, Art'
p2394
(lp2395
VCharles D. Blodgett
p2396
asS'Raskin, Shimen'
p2397
(lp2398
VLee J. Cobb
p2399
asS'Stone,     Martha'
p2400
(lp2401
VLou Rosser
p2402
asS'Freed, Emil'
p2403
(lp2404
VAnne Kinney
p2405
asS'Lehman, Fanny'
p2406
(lp2407
VMrs. Lloyd             Lehman
p2408
aVCharles D. Blodgett
p2409
aVWilliam D. Ames
p2410
asS'Charles,     Andy'
p2411
(lp2412
VLou Rosser
p2413
aVMr. Charles
p2414
asS'Shaw, Robert'
p2415
(lp2416
VPauline     S.   Townsend
p2417
asS'Hartman, Sarah.'
p2418
(lp2419
VSarah Hartman
p2420
asS'Parsons, Frank'
p2421
(lp2422
VDickson  P. Hill
p2423
aVMary  E. P. Bradsher
p2424
aVBertha Grover
p2425
asS'Hurvich, Leo M'
p2426
(lp2427
VMr. Hurvich
p2428
aVN. Y.
p2429
asS'Rutter, Bill'
p2430
(lp2431
VDickson P.   Hill
p2432
asS'Fields, Shirley'
p2433
(lp2434
VNicholas Campas
p2435
aVShirley Fields
p2436
asS'Nechemias, Ann'
p2437
(lp2438
VDorothy K. Funn
p2439
asS'Gelfand, Sam'
p2440
(lp2441
VAnne Kinney
p2442
asS'Wachter,      Billie'
p2443
(lp2444
VDickson P. Hill
p2445
aVWilliam D. Ames
p2446
asS'Jackson, Harry'
p2447
(lp2448
VLou Rosser
p2449
asS'Gold, Stella'
p2450
(lp2451
VJohn Mills Davis
p2452
aVMrs. Irving
p2453
aVSamuel Evens
p2454
asS'Lien, Jean'
p2455
(lp2456
VMrs. Gene Lien
p2457
aVDickson  P. Hill
p2458
aVMary  E. P. Bradsher
p2459
asS'Solotoy, Sonya'
p2460
(lp2461
VMrs. Percy Solotoy
p2462
aVAnne Kinney
p2463
asS'Short, Irene'
p2464
(lp2465
VNicholas Campas
p2466
aVIrene Short
p2467
asS'King. James'
p2468
(lp2469
VNicholas Campas
p2470
aVMunici
p2471
aVJack Davis
p2472
asS'Dr. Bella V'
p2473
(lp2474
VDorothy K. Funn
p2475
asS'Lazarus, Simon'
p2476
(lp2477
VMr. Lazarus
p2478
asS'Robinson, Marjorie'
p2479
(lp2480
VEdith Macia
p2481
asS'Morris, Luther'
p2482
(lp2483
VCharles D. Blodgett
p2484
aVBethlehem William D. Ames
p2485
asS'Hellgren, George'
p2486
(lp2487
VShor
p2488
asS'Brown, Tom'
p2489
(lp2490
VLou Rosser
p2491
asS'Ball,   Fred'
p2492
(lp2493
VMr. Ball
p2494
asS'Lerner, James'
p2495
(lp2496
VBenjamin Gitlow
p2497
aVJohnson
p2498
asS'Baroway, Leo'
p2499
(lp2500
VAnne Kinney
p2501
a(lp2502
VCharles D. Blodgett
p2503
aVWilliam D. Ames
p2504
aasS'Garber, Dora'
p2505
(lp2506
VEdith Macia
p2507
asS'Darling, Barbara'
p2508
(lp2509
VMrs. Byron T.       Bereniece Baldwin
p2510
asS'Gordon, Don'
p2511
(lp2512
VDarling Adams
p2513
asS'Price,   Marge'
p2514
(lp2515
VWilliam D. Ames
p2516
asS'Moreau, Alberto'
p2517
(lp2518
VDorothy K. Funn
p2519
asS'Doyle, Bernadette'
p2520
(lp2521
VDickson P.   Hill
p2522
asS'Vinson,   Pauline'
p2523
(lp2524
VMrs.    Owen     Vinson
p2525
aVPauline    Hopkins
p2526
asS'Aliiert,      Hymie'
p2527
(lp2528
VEdith Macia
p2529
asS'Maise, Wilhelmina'
p2530
(lp2531
VAnne Kinney
p2532
asS'Saunders, David'
p2533
(lp2534
VJames Kendall
p2535
aVS. S.   Alice    H. Rice
p2536
asS'TobeT, Clarence'
p2537
(lp2538
VDickson P. Hill
p2539
aVWilliam D. Ames
p2540
aVMr.         Tobey
p2541
asS'Markham, George'
p2542
(lp2543
VMr. Markham
p2544
asS'Gilbert,    Miss Jane'
p2545
(lp2546
VCharles D. Blodgett
p2547
asS'Wexley, John'
p2548
(lp2549
VDavid A.       Lanir
p2550
aVPauline     S.     Townsend
p2551
aVBart Lytton
p2552
aVRobert Rossen
p2553
asS'Campbell, Will'
p2554
(lp2555
VCharles D. Blodgett
p2556
asS'DeCaux, Len'
p2557
(lp2558
VDorothy K. Funn
p2559
asS'Dale, Thelma'
p2560
(lp2561
VDorothy K. Funn
p2562
aVSarah Hartman               Dorothy K. Funn
p2563
asS'Salit, Sophia'
p2564
(lp2565
VEdith Macia
p2566
asS'Schwartz, Harry'
p2567
(lp2568
VEdith Macia
p2569
aVSchwartz
p2570
aVEdith Macia
p2571
asS'Cayton, Revels.'
p2572
(lp2573
VDorothy K. Funn
p2574
asS'Todd. Louise'
p2575
(lp2576
VCharles D.               Blodgett
p2577
aVDickson P.   Hill
p2578
asS'Jarrico, Paul.'
p2579
(lp2580
VV. J.
p2581
asS'Koide, Joe'
p2582
(lp2583
VMr. Koide
p2584
asS'Endore, Henriette'
p2585
(lp2586
VBabbette Lang
p2587
asS'Blumberg, Albert'
p2588
(lp2589
VDorothy K. Funn
p2590
asS'Smith, John'
p2591
(lp2592
VCharles D. Blodgett
p2593
asS'Fox, Jack'
p2594
(lp2595
VAnne Kinney
p2596
aVDavida Anne Kinney
p2597
aVMrs. Fred Franchi
p2598
asS'Schachter, Harold'
p2599
(lp2600
VCharles D. Blodgett
p2601
aVMr. Schachter
p2602
aVCarlton Col
p2603
asS'Halliug, Bjorne'
p2604
(lp2605
VErnest L. Seymour
p2606
asS'Bevins, John'
p2607
(lp2608
VAnne Kinney
p2609
asS'Gilbert. Margaret'
p2610
(lp2611
VHerbert A. Philbrick
p2612
asS'Myer, Irving'
p2613
(lp2614
VEdith Macia
p2615
asS'Hill. Pearl'
p2616
(lp2617
VMrs. Newton
p2618
aVCharles D. Blodgett
p2619
asS'Burke, Bea'
p2620
(lp2621
VAnne Kinney
p2622
asS'Edgley, Leslie'
p2623
(lp2624
VPauline S. Townsend
p2625
asS'Winston, William'
p2626
(lp2627
VSamuel Evens
p2628
asS'Beard, Cecil'
p2629
(lp2630
VDarling Adams
p2631
asS'Rubin,       Stanley'
p2632
(lp2633
VMr. Rubin
p2634
asS'Rohr, Myrtle'
p2635
(lp2636
VEdith Macia
p2637
asS'Shapiro, Victor'
p2638
(lp2639
VDavid A. Lang
p2640
aVLeopold Atlas
p2641
aVRobert Rossen
p2642
asS'Judis, Harry'
p2643
(lp2644
VEdith Macia
p2645
aVJudis
p2646
aVMrs.   Harry Judis
p2647
aVEdith Macia
p2648
asS'Lima, Mrs. Helen'
p2649
(lp2650
VCharles D. Blodgett
p2651
asS'Klowden, Nina'
p2652
(lp2653
VDwight Hauser
p2654
aVRoy Erwin
p2655
aVCariu Kinzel
p2656
asS'Killian, Victor'
p2657
(lp2658
VLarry Parks
p2659
aVLee J. Cobb
p2660
asS'Rackliffe, Jack'
p2661
(lp2662
VRobert Gorham Davis
p2663
aVGranville Hicks
p2664
aVDaniel J. Boorstln
p2665
aVNorman Levinsou
p2666
aVGeorge Mayberry
p2667
asS'Atkinson, Mrs. Sadie'
p2668
(lp2669
VMrs. Atkinson  Teuf
p2670
asS'Morley, Karen'
p2671
(lp2672
VRoy Erwin
p2673
aVLarry Parks
p2674
asS'Zuckman, Morris'
p2675
(lp2676
VJohn Mills Davis
p2677
aVSamuel Evens
p2678
asS'LaFortune, George'
p2679
(lp2680
VNicholas Campas
p2681
aVN. Y.                                     Jack Davis
p2682
asS'Meadows, Leon'
p2683
(lp2684
VCarin Kinzel
p2685
asS'Reddock, Arcus'
p2686
(lp2687
VAnne Kinney
p2688
asS'Lapin, Adam.'
p2689
(lp2690
VBenjamin Gitlow
p2691
asS'Ingham, Bill'
p2692
(lp2693
VAnne Kinney
p2694
asS'Kaplan, Leon'
p2695
(lp2696
VJames Kendall
p2697
asS'McDonald, Florence'
p2698
(lp2699
VEdith Macia
p2700
asS'Shore, Viola Brothers'
p2701
(lp2702
VLang
p2703
asS'Lowe,    Bill'
p2704
(lp2705
VDickson P. Hill
p2706
aVWilliam D. Ames
p2707
asS'Treuhaft, Robert'
p2708
(lp2709
VCharles D. Blodgett
p2710
asS'Shaffer,      George'
p2711
(lp2712
VAnne Kinney
p2713
asS'Levy, Larry'
p2714
(lp2715
VHarry J. Marks
p2716
asS'Lazari, Nick'
p2717
(lp2718
VNicholas Campas
p2719
asS'Rieliards. Ann Roth'
p2720
(lp2721
VMarie                                                 Dorothy K. Funn
p2722
asS'Arnold, Robert'
p2723
(lp2724
VJohn Mills Davis
p2725
asS'Zadow, Joseph'
p2726
(lp2727
VAnne Kinney
p2728
aVDee
p2729
asS'Lynch, Joe'
p2730
(lp2731
VErnest L. Seymour
p2732
asS'Henry, Milton'
p2733
(lp2734
VAnne Kinney
p2735
asS'Clark, Maurice'
p2736
(lp2737
VRobert Rossen
p2738
aVBart Lytton
p2739
aVDavid A. Lang
p2740
aVSol Shor
p2741
asS' Phillips.Marie'
p2742
(lp2743
VMrs.      Earl       Phillips
p2744
aVDickson   P. Hill
p2745
asS'Koppelman, Hyman'
p2746
(lp2747
VDorothy K. Funn
p2748
asS'Avnet, Marcella'
p2749
(lp2750
VDorothy K. Funn
p2751
asS'Gold, Lee'
p2752
(lp2753
VSilvia Richards
p2754
asS'Wolff, William'
p2755
(lp2756
VCarin Kinzel
p2757
asS'Fisher, Mrs. Eddie'
p2758
(lp2759
VAnya     Lieber
p2760
asS'Hillierman. David'
p2761
(lp2762
VDave
p2763
asS'Saul, Estelle'
p2764
(lp2765
VMrs. Oscar Saul
p2766
aVBabbette Lang
p2767
asS'Schlatter, Richard'
p2768
(lp2769
VMr. Schlatter
p2770
asS'Trachgin, Frieda'
p2771
(lp2772
VEdith Macia
p2773
asS'Seklen, Betty'
p2774
(lp2775
VAnne Kinney
p2776
asS'Clinton, Rose'
p2777
(lp2778
VDorothy K. Funn
p2779
asS'Matanami, Pete'
p2780
(lp2781
VDickson P.   Hill
p2782
asS'Gold, Irving'
p2783
(lp2784
VJohn Mills Davis
p2785
aVSamuel Evens
p2786
asS'Ryan, Ruth Stoddard'
p2787
(lp2788
VAnne Kinney
p2789
asS'Dakchoylous, Kostas'
p2790
(lp2791
VJohn Mills Davis
p2792
asS'Burris, Jack'
p2793
(lp2794
VLou Rosser
p2795
asS'Belinky, Sidney'
p2796
(lp2797
VJohn Mills Davis
p2798
aVSamuel Evens
p2799
asS'Pfeiffer,       Charles'
p2800
(lp2801
VCharlie
p2802
aVLou Rosser
p2803
asS'Mayhew,  Elizabeth.'
p2804
(lp2805
VElizabeth Mc
p2806
aVMullen
p2807
asS'Margolis, Adele'
p2808
(lp2809
VMrs.      Nathan Mar
p2810
aVMrs. Margolis
p2811
asS'LeSeuer, Meridel'
p2812
(lp2813
VCharles D. Blodgett
p2814
aVCharles D. Blodgett
p2815
aVWebster
p2816
asS'Barlow, Elizabetb'
p2817
(lp2818
VMrs. Edward Bar
p2819
aVDickson P. Hill
p2820
aVWilliam D. Ames
p2821
aVBertha Grover
p2822
asS'Lindesmith, Rosalind'
p2823
(lp2824
VMrs.       Johnny         Dickson P. Hill
p2825
aVWilliam D. Ames
p2826
asS'Sharf, Rose'
p2827
(lp2828
VEdith Macia
p2829
aVMrs. Dave Sharf
p2830
asS'Baker, Donald'
p2831
(lp2832
VLou   Rosser
p2833
asS'Sherman, Lou'
p2834
(lp2835
VLou Lou Rosser
p2836
asS'Malloy, Sophia'
p2837
(lp2838
VEdith Macia
p2839
asS'Fogarty, Doris'
p2840
(lp2841
VMrs. Pat Fogarty
p2842
aVDickson P. Hill
p2843
asS'Yates, Al'
p2844
(lp2845
VAllen
p2846
aVLou Rosser
p2847
asS'Rousseau, Louise'
p2848
(lp2849
VDavid A. Lang
p2850
aVMrs. Sam Rubin
p2851
aVEdith Macia
p2852
asS'Lauber, Pauline.'
p2853
(lp2854
VPauline Lauber  Finn
p2855
asS'Crago, Amalia Pesko'
p2856
(lp2857
VNicholas Campas
p2858
aVJack Davis
p2859
aVJohn Mills Davis
p2860
aVSamuel Evens
p2861
asS'Struik, Dirk J'
p2862
(lp2863
VWilliam T. Martin
p2864
aVIsadore Amdur
p2865
asS'LauibtMt. Rude.'
p2866
(lp2867
VAnne Kinney
p2868
asS'Drake, James'
p2869
(lp2870
VJames Kendall
p2871
asS'Anthony, Iva'
p2872
(lp2873
VEdith Macia
p2874
asS'Hill,    Newton'
p2875
(lp2876
VCharles D. Blodgett
p2877
asS'Heide,     Ruby'
p2878
(lp2879
VMrs. Paul Heide
p2880
aVDickson P. Hill
p2881
aVCharles D. Blodgett
p2882
asS'Lawrence, Bill'
p2883
(lp2884
VRobert Gladnick
p2885
aVNicholas Campas
p2886
asS'Mrs. Dorothy K'
p2887
(lp2888
VJackRichard McMichael
p2889
a(lp2890
VMrs. Funn
p2891
aVMr. Rosser
p2892
aVRosser
p2893
aasS'Kubin, Sam'
p2894
(lp2895
VEdith Macia
p2896
aVSara                   Edith Macia
p2897
asS'Chaunt, Peter'
p2898
(lp2899
VManning Johnson
p2900
aVN. Y.
p2901
asS'Lindeman, Mitchell'
p2902
(lp2903
VCarin Kinzel
p2904
asS'Wheeler, Helen'
p2905
(lp2906
VLou Rosser
p2907
aVHelen Wheeler
p2908
asS'Leech, Elizabeth'
p2909
(lp2910
VMrs. Charles Glenn
p2911
aVAnne Kinney
p2912
aVPauline S. Townsend
p2913
aVBart Lytton
p2914
asS'Beitscher, Henry'
p2915
(lp2916
VDorothy K. Funn
p2917
asS'Douglas, Kelly'
p2918
(lp2919
VSamuel Evens
p2920
asS'Manoff, Arnold'
p2921
(lp2922
VDavid A. Lang
p2923
aVSilvia Richards
p2924
aVShor
p2925
aVLeopold Atlas
p2926
aVLee J. Cobb
p2927
asS'Brown, Carter'
p2928
(lp2929
VAnne Kinney
p2930
asS'Wachsman, Robert'
p2931
(lp2932
VCharles Daggett
p2933
asS'Green, Louis'
p2934
(lp2935
VCharles D. Blodgett
p2936
asS'Fruit,   Harry'
p2937
(lp2938
VMr. Fruit
p2939
asS'Levitt. Alfred'
p2940
(lp2941
VDavid A. Lang
p2942
aVShor
p2943
aVLeopold Atlas
p2944
asS'Lawson, John Howard'
p2945
(lp2946
VHarold Hecht
p2947
aVDavid A. LauL
p2948
aVMax Benoff
p2949
aVShor
p2950
aVLeopold Atlas
p2951
aVPauline S. Townsend
p2952
aVRoland W. Kibbee
p2953
aVLee J. Cobb
p2954
aVBart Lytton
p2955
asS'Horn, Sam'
p2956
(lp2957
VEdith Macia
p2958
asS'Rosser, Mary Lou'
p2959
(lp2960
VMrs. Lou                Lou Rosser
p2961
asS'Bridges,   Harry'
p2962
(lp2963
VJames Kendall
p2964
asS'Pedrick. Jessie'
p2965
(lp2966
VDickson   P. Hill
p2967
aVMatt
p2968
aVMike            Lou Rosser
p2969
aVMax Appleman
p2970
aVPeters
p2971
aVAlexander                               Lou Rosser
p2972
aVStevens
p2973
aVHazel                                              Bertha Grover
p2974
asS'Putnam, Fred'
p2975
(lp2976
VEdith Macia
p2977
aVMary
p2978
aVMrs. Joe Aidlin
p2979
aVAnne Kinney
p2980
asS'Capelle, Frauces'
p2981
(lp2982
VMrs. Roger Capeile
p2983
aVBertha Grover
p2984
aVBast Oakland                 Dickson P. Hill
p2985
aVWilliam D. Ames
p2986
asS'Dimsdale, Harold'
p2987
(lp2988
VEdith Macia
p2989
asS'Murray, Donald'
p2990
(lp2991
VAnne Kinney
p2992
asS'Brandt, Carl'
p2993
(lp2994
VLou Rosser
p2995
asS'Lewis, Richard Bvrd'
p2996
(lp2997
VBart                                            Mar.
p2998
asS'Polonsky, Abraham Lincoln'
p2999
(lp3000
VLeopold Atlas
p3001
asS'Scott, Adrian'
p3002
(lp3003
VDavid A. Lang
p3004
aVRobert Rossen
p3005
asS'Creque, William'
p3006
(lp3007
VDickson P.   Hill
p3008
asS'Kline, Joe'
p3009
(lp3010
VEdith Macia
p3011
asS'Anderson, Bruce'
p3012
(lp3013
VMary E. P. Bradsher
p3014
asS'Sanford, Mrs. John'
p3015
(lp3016
VMarguerite    Roberts
p3017
asS'Cohen, Sue'
p3018
(lp3019
VAnne Kinney
p3020
asS'Endore,    Guy'
p3021
(lp3022
VRobert Rossen
p3023
aVDavid A. Lang
p3024
aVLeopold Atlas
p3025
aVBabbette Lang
p3026
asS'Roberts, Holland'
p3027
(lp3028
VAnne Kinuey
p3029
aVDee
p3030
a(lp3031
VCharles D. Blodgett
p3032
aasS'Winter, Carl'
p3033
(lp3034
VAnne Kinney
p3035
aVPauline S. Townsend
p3036
asS'Kelly, Robert'
p3037
(lp3038
VCharles D. Blodgett
p3039
asS'Stevenson, Philip'
p3040
(lp3041
VPhil
p3042
aVLeopold Atlas
p3043
aVPauline S. Townsend
p3044
asS'Strack, Celeste'
p3045
(lp3046
VLou Rosser
p3047
asS'Riskin, Angelina'
p3048
(lp3049
VAnne Kinney
p3050
asS'Grant, Carl'
p3051
(lp3052
VAnne Kinney
p3053
asS'Berkeley, Martin'
p3054
(lp3055
VMr. Berkeley
p3056
asS'Shapiro, Hannah'
p3057
(lp3058
VMrs. Leon Shapiro
p3059
aVJohn Mills Davis
p3060
aVSamuel Evens
p3061
asS'McHarg, Janet'
p3062
(lp3063
VDickson P.    Hill
p3064
asS'Samuels, Helen'
p3065
(lp3066
VEdith Macia
p3067
asS'Trabusis, Paul'
p3068
(lp3069
VDavid A. Lang
p3070
asS'Feay, Herbert'
p3071
(lp3072
VNicholas Campas
p3073
aVJack Davis
p3074
asS'Hathaway, Clarence'
p3075
(lp3076
VManning Johnson
p3077
aVA. A.                                             Manning Johnson
p3078
asS'Finkelstein, Ruth'
p3079
(lp3080
VDorothy K. Funn
p3081
asS'Kolowski, Walter'
p3082
(lp3083
VRobert Gladnick
p3084
asS'Mr. Kendall'
p3085
(lp3086
VArthur Middleton
p3087
aVMr. Kendall
p3088
asS'Miller, Lewis.'
p3089
(lp3090
VLouis Goldblatt
p3091
asS'Kalish, Sam'
p3092
(lp3093
VLeRoy Herndon
p3094
aVRichard Byrd Lewis
p3095
aVAnne Kinney
p3096
asS'Steinmetz, Harry C'
p3097
(lp3098
VAnne Kinney
p3099
aVStevens Clara                                              Anne Kinney
p3100
asS'Biberman, Herbert'
p3101
(lp3102
VLeopold Atlas
p3103
aVRoland W. Kibbee
p3104
aVHarold Hecht
p3105
aVGertrude Purcell
p3106
aVShor
p3107
asS'Narcisenfeld, Harvey'
p3108
(lp3109
VMr. Narcisenfeld
p3110
asS'Ginsberg, Margaret'
p3111
(lp3112
VMrs. Jack Gins
p3113
aVAnne Kinney
p3114
asS'Goldfrank,   Herbert'
p3115
(lp3116
VSilvia Richards
p3117
aVHerbert Davis
p3118
asS'Koch, Mrs. Howard'
p3119
(lp3120
VLester                                   David  A. Lang
p3121
aVShor
p3122
aVJoe                                 Charlotte Darling Adams
p3123
asS'Johnson, Edith'
p3124
(lp3125
VEdith Macia
p3126
asS'Pieper, Mrs.'
p3127
(lp3128
VMary                                          Charles D. Blodgett
p3129
asS'Springer. The committee'
p3130
(lp3131
VMax Klansky
p3132
aVWalter
p3133
asS'Edelsteiu,     Sam'
p3134
(lp3135
VNicholas Campas
p3136
asS'Lewis, Matilda'
p3137
(lp3138
VMrs. Al Lewis
p3139
aVAnne Kinney
p3140
aVLeRoy Herndon
p3141
aVByrd Lewis
p3142
asS'Rinaldo, Fred'
p3143
(lp3144
VPauline S. Townsend
p3145
aVRobert Rossen
p3146
asS'Jacobson, Libby'
p3147
(lp3148
VAnne Kinney
p3149
asS'Brooks, Miriam'
p3150
(lp3151
VAnne Kinney
p3152
asS'Kibre, Jeff'
p3153
(lp3154
VRoland W. Kibbee
p3155
aVDarling Adams
p3156
asS'Sharpe, Edith'
p3157
(lp3158
VBertha Grover
p3159
aVCharles D. Blodgett
p3160
aVWilliam D. Ames
p3161
asS'Browne, Gus'
p3162
(lp3163
VBrown
p3164
aVEdith Macia
p3165
asS'Pearson, Rose'
p3166
(lp3167
VHarold Hecht
p3168
asS'Bennett, Seymour'
p3169
(lp3170
VDavid A. Lang
p3171
asS'Springer, Joseph'
p3172
(lp3173
VRobert Gladnick
p3174
aVJoe Saul
p3175
asS'Hames, Lynn'
p3176
(lp3177
VCharles D. Blodgett
p3178
asS'Fagerhaugh, Ole'
p3179
(lp3180
VCharles D. Blodgett
p3181
asS'Standish, Ruth'
p3182
(lp3183
VMrs. Jack Standish
p3184
aVCharles D. Blodgett
p3185
asS'Freund, Burton'
p3186
(lp3187
VEdith Macia
p3188
asS'Baron, Lou'
p3189
(lp3190
VAnne Kinney
p3191
a(lp3192
VLou Rosser
p3193
aasS'Shire, Marian'
p3194
(lp3195
VMrs. Henry Shire
p3196
aVAnne Kinney
p3197
asS'Bnrnstein, Russell William'
p3198
(lp3199
VBabbette Lang
p3200
asS'Willner. George'
p3201
(lp3202
VSilvia Richards
p3203
aVLeopold Atlas
p3204
aVBabbette Lang
p3205
asS'Standish, Jack'
p3206
(lp3207
VCharles D. Blodgett
p3208
asS'Woods, Dorothy'
p3209
(lp3210
VJosephine             Dickson P.     Hill
p3211
asS'Hultgren. Ruth'
p3212
(lp3213
VMrs. Wayne Hultgren
p3214
aVCharles D. Blodgett
p3215
aVWilliam D. Ames
p3216
asS'Gladstone, Charles'
p3217
(lp3218
VJoe                          Edith Macia
p3219
asS'Foreman, Carl'
p3220
(lp3221
VDavid A. Lang
p3222
aVSol Shor
p3223
aVBabbette Lang
p3224
asS'Jacobs, Florence'
p3225
(lp3226
VMrs. Julius Jacobs
p3227
aVDorothy K. Funn
p3228
aVFranklin K. Lane
p3229
asS'Crockett, Rosalie'
p3230
(lp3231
VWilliam D. Ames
p3232
asS'Becker, Catherine'
p3233
(lp3234
VPauline S. Townsend
p3235
asS'Byler, Albert'
p3236
(lp3237
VAnne Kinney
p3238
asS'Wheeler, Mrs. Juanita'
p3239
(lp3240
VCharles D. Blodgett
p3241
asS'Tarloff, Frank'
p3242
(lp3243
VDavid A. Lang
p3244
aVPauline S. Townsend
p3245
asS'Weinstein, Evelyn'
p3246
(lp3247
VJohn Mills Davis
p3248
aVEvelyn Weinstein
p3249
asS'Wolf, Hilton'
p3250
(lp3251
VEdith Macia
p3252
asS'Capelle,    Roger'
p3253
(lp3254
VDickson P. Hill
p3255
aVBertha Grover
p3256
asS'Robinson, Bob'
p3257
(lp3258
VEdith Macia
p3259
asS'Toopeekoff, Eugene Alexander'
p3260
(lp3261
VJames Kendall
p3262
asS'Eagle, Eugene'
p3263
(lp3264
VDickson P.   Hill
p3265
asS'Gonda, Elaine'
p3266
(lp3267
VCarlin Kinzel
p3268
asS'Davis, Clarence'
p3269
(lp3270
VCharles D. Blodgett
p3271
asS'Ellis, Bill'
p3272
(lp3273
VRobert Gladnick
p3274
aVMr. Ellis
p3275
asS'McVey, Paul'
p3276
(lp3277
VDwight Hauser
p3278
aVRoy Erwin
p3279
aVMr. Dwight Hauser
p3280
aVCarin Kinzel
p3281
aVPaul McVey
p3282
asS'Shore, Wilma'
p3283
(lp3284
VMrs.       Lou Solomon
p3285
aVDavid A. Lang
p3286
asS'Mindel, Jacob'
p3287
(lp3288
VLou Rosser
p3289
asS'Purcell. Gertrude'
p3290
(lp3291
VKapf Maurice
p3292
asS'Maltz, Albert'
p3293
(lp3294
VHarold Hecht
p3295
aVMax Benoff
p3296
aVLeopold Atlas
p3297
aVBabbette Lang
p3298
asS'Moskin, Frank'
p3299
(lp3300
VEdith Macia
p3301
asS'Silver,      Max'
p3302
(lp3303
VMr. Silver
p3304
asS'Thompson, Louise.'
p3305
(lp3306
VManning Johnson
p3307
asS'Carlyle,Harry'
p3308
(lp3309
VHarry Carlisle
p3310
aVRoy Erwin
p3311
aVPauline S. Townsend
p3312
asS'Bognoff, Sarah'
p3313
(lp3314
VCharles H. Garrigues
p3315
aVMar
p3316
asS'Swanson, Carl'
p3317
(lp3318
VAnne Kinney
p3319
asS' Birnkarnt, Arthur'
p3320
(lp3321
VBirnkrant
p3322
aVDavid A. Lang
p3323
aVPauline S. Townsend
p3324
asS'Olson,     Ben'
p3325
(lp3326
VSilvia Richards
p3327
asS'Brudney, Goodman'
p3328
(lp3329
VCharles D. Blodgett
p3330
asS'Posell,Rose'
p3331
(lp3332
VLeRoy Herndon
p3333
aVAnne Kinney
p3334
asS'Crockett, Bill'
p3335
(lp3336
VWilliam D. Ames
p3337
asS'Kirkon, Walter'
p3338
(lp3339
VCharles D. Blodgett
p3340
asS'Matsuto, John'
p3341
(lp3342
VAnne Kinney
p3343
asS'Eidenoff, Josephine Woods'
p3344
(lp3345
VDickson P. Hill
p3346
asS'Michelson, Clariua'
p3347
(lp3348
VManning Johnson
p3349
asS'Laros, Betty'
p3350
(lp3351
VJack Davis
p3352
aVJohn Mills Davis
p3353
aVSamuel Evens
p3354
asS'Wagner, Esther Jerry'
p3355
(lp3356
VBabbette Lang
p3357
asS'Belinky, Harriet'
p3358
(lp3359
VMrs. Sidney Belinky
p3360
aVJohn Mills Davis
p3361
aVSamuel Evens
p3362
asS'Melia, Joseph'
p3363
(lp3364
VDickson P. Hill
p3365
aVCharles D. Blodgett
p3366
aVWilliam D. Ames
p3367
asS'Kalman, Herb'
p3368
(lp3369
VDickson P. Hill
p3370
aVBertha Grover
p3371
aVErnest L. Seymour
p3372
asS'Chodorov, Jerome'
p3373
(lp3374
VJerome Robbins
p3375
asS'Proctor, Lyle'
p3376
(lp3377
VRosser
p3378
asS'Page, Charles Albert'
p3379
(lp3380
VMorris Appelman
p3381
asS'Spivak, Freda'
p3382
(lp3383
VEdith Macia
p3384
asS'Little,John'
p3385
(lp3386
VRobert Gladnick
p3387
asS'Thompson, Louise'
p3388
(lp3389
VLou Rosser
p3390
aVRay                                Bertha Grover
p3391
aVMarv E. P. Bradsher
p3392
aVDickson P. Hill
p3393
aVWilliam D. Ames
p3394
asS'Higman, Nell'
p3395
(lp3396
VLou Rosser
p3397
asS'Treskiu, Alex'
p3398
(lp3399
VDickson   P. Hill
p3400
asS'Augustine, Elizabeth.'
p3401
(lp3402
VElizabeth    McMuUen
p3403
asS'Kahn, Gordon'
p3404
(lp3405
VHarold Hecht
p3406
aVDavid A. Lang
p3407
aVMax Benoff
p3408
aVLeopold Atlas
p3409
asS'Looschen, John'
p3410
(lp3411
VMr. Looschen
p3412
asS'Parry, William T'
p3413
(lp3414
VRobert Gorham Davis
p3415
asS'Haywood, Harry'
p3416
(lp3417
VLou Rosser
p3418
asS'Kaplan, Al'
p3419
(lp3420
VLou Rosser
p3421
asS'Mackie, Martin'
p3422
(lp3423
VCharles D. Blodgett
p3424
asS'Terry, Joe'
p3425
(lp3426
VCharles D. Blodgett
p3427
asS'Redner, Bill'
p3428
(lp3429
VMary    E. P. Bradsher
p3430
asS'Grier, Mary Catherine'
p3431
(lp3432
VGeological       Grier
p3433
asS'Martin, Henriette'
p3434
(lp3435
VDavid A. Lang
p3436
aVPauline S. Townsend
p3437
asS'Whitney, Anita'
p3438
(lp3439
VLou Rosser
p3440
asS'Chamberlin, Howland'
p3441
(lp3442
VAnne Kinney
p3443
asS'Pate, Bob'
p3444
(lp3445
VEdith Macia
p3446
asS'Hobart, Rose'
p3447
(lp3448
VLee   J.    Cobb
p3449
asS'Dodd, Rena'
p3450
(lp3451
VJack Davis
p3452
aVJohn Mills Davis
p3453
aVSamuel Evens
p3454
asS'Emer, Frank'
p3455
(lp3456
VEdith Macia
p3457
asS'Robinson, Jack'
p3458
(lp3459
VRoy Erwin
p3460
asS'Ocko, Edna'
p3461
(lp3462
VJerome Robbins
p3463
asS'Geyer, Sara'
p3464
(lp3465
VEdith Macia
p3466
asS'Doberty, John'
p3467
(lp3468
VEdith Macia
p3469
asS'Gough, Lloyd'
p3470
(lp3471
VLarry Parks
p3472
aVJerome Robbins
p3473
asS'Morgan,      Ann Roth'
p3474
(lp3475
VAnn Roth    Richards
p3476
asS'Zucker, Jack S'
p3477
(lp3478
VDorothy K. Funn
p3479
asS'Lawson, Kate'
p3480
(lp3481
VMrs. John Lawson
p3482
asS'Holtz, Doreen'
p3483
(lp3484
VEdith Macia
p3485
asS'Criley, Dick'
p3486
(lp3487
VLou Rosser
p3488
asS'Drummond, Dave'
p3489
(lp3490
VRobert Gladnick
p3491
aVMr. Gladnick
p3492
aVMr. Drummond
p3493
asS'Clott,    Herman'
p3494
(lp3495
VDorothy K. Funn
p3496
asS'Hall, Martin'
p3497
(lp3498
VHerman                        Benjamin Gitlow
p3499
asS'Rand, Jean'
p3500
(lp3501
VLou Rosser
p3502
aVJean Rand
p3503
asS'Leech, John'
p3504
(lp3505
VAnne Kinney
p3506
asS'Dunham, Barrows'
p3507
(lp3508
VMr. Dunham
p3509
asS'Stone, Shirley'
p3510
(lp3511
VMrs. Charles                     Stone
p3512
aVEdith Macia
p3513
aVShirley Ellis
p3514
asS'Edises,Bertram'
p3515
(lp3516
VCharles D. Blodgett
p3517
asS'Moss, Louise'
p3518
(lp3519
VLouise Losey
p3520
asS'Oster, Nina'
p3521
(lp3522
VEdith Macia
p3523
asS'Flacks. David'
p3524
(lp3525
VDorothy K. Funn
p3526
asS'Laserfin. Pauline'
p3527
(lp3528
VDavid A. Lang
p3529
asS'Kalman, Teresa'
p3530
(lp3531
VBertha Grover
p3532
asS'Lapin, Mrs. Eva'
p3533
(lp3534
VCharles D. Blodgett
p3535
asS'Halpern,     Ray'
p3536
(lp3537
VBertha Grover
p3538
asS'Richards, Ann Roth'
p3539
(lp3540
VMrs. Rob
p3541
aVRobert Rossen
p3542
aVBart Lytton
p3543
aVLeopold Atlas
p3544
aVPauline S. Townsend
p3545
aVBabbette Lang
p3546
aVDavid A. Lang
p3547
asS'Freeman, Sidney'
p3548
(lp3549
VLeRoy Herndon
p3550
asS'Bachelis, Selma'
p3551
(lp3552
VDarling Adams
p3553
asS'Gerstinheim, Leo'
p3554
(lp3555
VNicholas Campas
p3556
aVMr. Gerstinheim
p3557
asS'Englehart, Mrs. A'
p3558
(lp3559
VDickson P. Hill
p3560
asS'Oilman, Sarah'
p3561
(lp3562
VSarah                      Dorothy K. Funn
p3563
aVGilman Rosenblatt
p3564
asS'Rapf, Maurice'
p3565
(lp3566
VDavid A. Lang
p3567
aVShor
p3568
aVPauline S. Townsend
p3569
aVRoland W. Kibbee
p3570
aVRobert Rossen
p3571
asS'McFadden, James'
p3572
(lp3573
VBertha Grover
p3574
asS'Chapman, Tom'
p3575
(lp3576
VShor
p3577
aVLeopold Atlas
p3578
asS'Robinson, Mary'
p3579
(lp3580
VMrs. Jack Robinson
p3581
aVRoy Erwin
p3582
asS'Ginsberg, Jack'
p3583
(lp3584
VAnne Kinney
p3585
asS'Hancock, Stanley'
p3586
(lp3587
VCharles H. Garrigues
p3588
asS'Boyer, Richard O'
p3589
(lp3590
VPauline S. Townsend
p3591
asS'Butler, Hugo'
p3592
(lp3593
VRobert Rossen
p3594
aVDavid A. Lang
p3595
aVSol Shor
p3596
asS'Moos, Mrs. Elizabeth'
p3597
(lp3598
VHerbert A. Philbrick
p3599
asS'Rolfe,   Ed'
p3600
(lp3601
VSilvia Richards
p3602
asS'Pollin, Ben'
p3603
(lp3604
VRoy Erwin
p3605
asS'Stathis, George'
p3606
(lp3607
VNicholas Campas
p3608
aVJohn Mills Davis
p3609
asS'Bloomfield, Sidney'
p3610
(lp3611
VHarry   J.    Marks
p3612
aVMargot                                           Robert Gorhain Davis
p3613
asS'Klein, Dorothy.'
p3614
(lp3615
VDorothy Loeb
p3616
asS'Witkowski, Anne'
p3617
(lp3618
VEdith Macia
p3619
asS'Rothstein, Ida'
p3620
(lp3621
VLou Rosser
p3622
asS'Karson, Bobbie'
p3623
(lp3624
VEdith   Macia
p3625
asS'Scott, Lew'
p3626
(lp3627
VAnne Kinney
p3628
asS'Shaw, Mary'
p3629
(lp3630
VMrs. Robert Shaw
p3631
aVPauline     S.   Townsend
p3632
asS'Mullen, Mrs. Virginia'
p3633
(lp3634
VMrs. Mullen
p3635
asS'Sherr,    Rubby'
p3636
(lp3637
VMr. Sherr
p3638
asS'Wexley, Cookie'
p3639
(lp3640
VMrs. John Wesley
p3641
aVPauline     S.     Townsend
p3642
asS'Shields. Art'
p3643
(lp3644
VDorrhy K.                 Fttttj
p3645
asS'Fletcher, Martha'
p3646
(lp3647
VMrs. Harold A. Flet
p3648
aVHerbert A. Philbrick
p3649
asS'Hubley, John'
p3650
(lp3651
VDarling Adams
p3652
asS'Bittman, John'
p3653
(lp3654
VCharles D. Blodgett
p3655
asS'McVey, Mrs. Paul'
p3656
(lp3657
VRoy Erwin
p3658
asS'Sharf,    Dave'
p3659
(lp3660
VEdith Macia
p3661
asS'Ward, Harry F'
p3662
(lp3663
VLeonard Patterson
p3664
aVManning Johnson
p3665
asS'Burton, Val'
p3666
(lp3667
VDavid A. Lang
p3668
asS'McLean, George'
p3669
(lp3670
VAnne Kinney
p3671
asS'Edgley, Mrs. Les'
p3672
(lp3673
VPauline  S. Townsend
p3674
aVEliscu
p3675
aVEdward                      David A. Lang
p3676
aVShor
p3677
asS'Calloway, Warner'
p3678
(lp3679
VBertha Grover
p3680
asS'Perloff, Caroline'
p3681
(lp3682
VMrs. David
p3683
aVMrs. Perloff
p3684
asS'Posell,    Joseph J'
p3685
(lp3686
VAnne Kinney
p3687
asS'Lepowsky, Martha'
p3688
(lp3689
VDorothy K. Funn
p3690
aVMrs. Kahn
p3691
asS'Dworkin,   Jeauette'
p3692
(lp3693
VMrs.                Michael    John Mills Davis
p3694
aVSamuel Evens
p3695
asS'Burnstein, Clare'
p3696
(lp3697
VMrs.    Russell     Wm.   Babbette Lang
p3698
asS'Webster, Flora'
p3699
(lp3700
VMrs. Willard Parker                      Bereniece Baldwin
p3701
aVWebster
p3702
asS'Wilson, Michael'
p3703
(lp3704
VDavid A. Lang
p3705
aVShor
p3706
aVBabbette Lang
p3707
asS'Yates,   Oleta O'
p3708
(lp3709
VConnor
p3710
aVOleta  O'Connor
p3711
asS'Woerner, Harold T'
p3712
(lp3713
VMr. Woerner   Salesman
p3714
asS'Gurewitz, Casey'
p3715
(lp3716
VDorothy K. Funn
p3717
asS'Jenkins, David'
p3718
(lp3719
VErnest L. Seymour
p3720
aVJames Kendall
p3721
asS'Wepman, Mrs. Sarah'
p3722
(lp3723
VMrs.           Wepman
p3724
asS'Gilliam, Louise'
p3725
(lp3726
VWilliam D. Ames
p3727
asS'Weber, Ruth'
p3728
(lp3729
VMrs. John Weber
p3730
aVSol Shor
p3731
aVLeopold Atlas
p3732
asS'Maymadus, Abraham'
p3733
(lp3734
VAnne Kinney
p3735
asS'Hendley, Charles'
p3736
(lp3737
VRobert Graham Davis
p3738
asS'Perry, Pettis'
p3739
(lp3740
VAnne Kinney
p3741
asS'Bela, Nicholas'
p3742
(lp3743
VNick
p3744
aVDavid A. Lang
p3745
aVShor
p3746
aVPauline S. Townsend
p3747
asS'Johnson, Allen'
p3748
(lp3749
VCharles D. Blodgett
p3750
asS'Olsen, Jack'
p3751
(lp3752
VJack 01
p3753
aVLou Rosser
p3754
asS'Montgomery, Jack'
p3755
(lp3756
VLou Rosser
p3757
asS'Segure, Rose'
p3758
(lp3759
VAlice Starr
p3760
aVAnne Kinney
p3761
a(lp3762
VCharles D. Blodgett
p3763
aasS'McMullen, Louis'
p3764
(lp3765
VDickson P.            Hill
p3766
asS'Goodwin, Kicliard'
p3767
(lp3768
VRobert Gorham Davis
p3769
aVDaniel J. Boorstin
p3770
aVRobert Gorliam Davis
p3771
aVMr. Goodwin
p3772
asS'MacGregor, Marjorie'
p3773
(lp3774
VMrs. Arnold Pauline S. Townsend
p3775
asS'Alexander, Herschel'
p3776
(lp3777
VLou Rosser
p3778
aVCharles D. Blodgett
p3779
aVWilliam D. Ames
p3780
asS'Grant. Elizabeth'
p3781
(lp3782
VMrs. Morton Leopold Atlas
p3783
asS'Hudson, Roy'
p3784
(lp3785
VLou Rosser
p3786
asS'Black, Elaine'
p3787
(lp3788
VLou Rosser
p3789
asS'Cohen, Ralph'
p3790
(lp3791
VJohn Mills Davis
p3792
aVSamuel Evens
p3793
asS'Beck, Elena'
p3794
(lp3795
VMildred Benoff
p3796
aVPauline S. Townsend
p3797
asS'Lapin, Adam'
p3798
(lp3799
VCharles D. Blodgett
p3800
asS'Kusiiitz,    Sara'
p3801
(lp3802
VEdith Macia
p3803
aVAnne Kinney
p3804
asS'Bargeman, Marvin'
p3805
(lp3806
VDavid A. Lang
p3807
asS'Flory, Ishmael'
p3808
(lp3809
VNicholas Campas
p3810
aVJack Davis
p3811
asS'Keller, Evelyn'
p3812
(lp3813
VAnne Kinney
p3814
asS'Hudson, Henry'
p3815
(lp3816
VEdith Macia
p3817
asS'States.   Both Johnson'
p3818
(lp3819
VPatterson
p3820
asS'Stone, Charles'
p3821
(lp3822
VCharles Edith Macia
p3823
asS'Goldstein, Mrs. Theodora'
p3824
(lp3825
VHerbert Philbrick
p3826
asS'Byrne, Norman'
p3827
(lp3828
VLeRoy Herndon
p3829
asS'Sherwood, Mary'
p3830
(lp3831
VDickson   P. Hill
p3832
asS'Parker, Eugene'
p3833
(lp3834
VCharles D. Blodgett
p3835
asS'Bryson,    Hugh'
p3836
(lp3837
VLou Rosser
p3838
aVJim                                     James Kendall
p3839
asS'Ryan, Maureen'
p3840
(lp3841
VMaurine
p3842
aVAnne Kinney
p3843
asS'Gilder,    Harry'
p3844
(lp3845
VEdith Macia
p3846
asS'Canrlght, Marjorie'
p3847
(lp3848
VMrs.           Norman Can
p3849
aVCharles        D. Blodgett
p3850
asS'Moore, Jack'
p3851
(lp3852
VAnne Kinney
p3853
asS'Lewitzky,        Bella'
p3854
(lp3855
VMrs.   Newell   Rey
p3856
aVAnne Kinney
p3857
asS'Teitelbaum, Dave'
p3858
(lp3859
VJames Kendall
p3860
aVS. S. Alice E. Rice
p3861
asS'Ivens. Louis'
p3862
(lp3863
VMr. Ivens
p3864
asS'Lucia, Tony Santa'
p3865
(lp3866
VTony Robert Gladnick
p3867
asS'Tree, Dorothy'
p3868
(lp3869
VMrs. Michael Uris
p3870
aVLarry Parks
p3871
aVLee J. Cobb
p3872
asS'Malloy, Rose'
p3873
(lp3874
VEdith Macia
p3875
asS'Young, Adele'
p3876
(lp3877
VLou Rosser
p3878
asS'Claibourne, Sidney'
p3879
(lp3880
VCharles D. Blodgett
p3881
asS'Cousins, Calvin'
p3882
(lp3883
VDorothy K. Funn
p3884
asS'Stevenson, Janet'
p3885
(lp3886
VMrs. Philip Steven
p3887
aVPauline S. Townsend
p3888
asS'Soler,   William Gordon'
p3889
(lp3890
VMr. Soler
p3891
asS'Eisler. Marjorie'
p3892
(lp3893
VMrs. Joe Eisler
p3894
aVCharles D. Blodgett
p3895
aVBertha Grover
p3896
asS'Elfenbein, Sylvia'
p3897
(lp3898
VDorothy K. Funn
p3899
asS'Lash, Joe'
p3900
(lp3901
VLeonard Patterson
p3902
aVMr. Lash
p3903
asS'Arnold, Lucy'
p3904
(lp3905
VAnne Kinney
p3906
asS'Vandercar, Catherine'
p3907
(lp3908
VBabbette Lang
p3909
asS'Campion, Martha'
p3910
(lp3911
VManning Johnson
p3912
aVMartha Campion
p3913
asS'Younce, Richard'
p3914
(lp3915
VCharles D. Blodgett
p3916
asS'Lambert, Rude'
p3917
(lp3918
VDickson P.   Hill
p3919
asS'Wagenknecht, Alfred'
p3920
(lp3921
VManning Johnson
p3922
asS'Abowitz, EUenore'
p3923
(lp3924
VMrs. Murray Abo
p3925
aVAnne Kinney
p3926
asS'Laniliert,   Walter'
p3927
(lp3928
VAnne Kiimey
p3929
aVMillard                                David  A. Lang
p3930
aVSilvia Richards
p3931
asS'Davis, Herbert'
p3932
(lp3933
VHerbert    Goldfrank
p3934
asS'Belfrage, Cedric Henning'
p3935
(lp3936
VMr. Belfrage
p3937
asS'Sullivan, Elliott'
p3938
(lp3939
VEly    Lee J. Cobb
p3940
aVJerome Robbins
p3941
asS'Wright, John'
p3942
(lp3943
VNicholas Campas
p3944
aVJack Davis
p3945
aVJohn Mills Davis
p3946
aVSamuel Evens
p3947
asS'Jones, Lillian'
p3948
(lp3949
VAnne Kinney
p3950
asS'Tarnoff,       Harry'
p3951
(lp3952
VAnne Kinney
p3953
asS'Schneidernian, William'
p3954
(lp3955
VLou Rosser
p3956
aVCharles D. Blodgett
p3957
asS'Riskin, Alexander'
p3958
(lp3959
VAnne Kinney
p3960
asS'Comingore, Dorothy'
p3961
(lp3962
VDavid A. Lang
p3963
asS'Ship, Reuben'
p3964
(lp3965
VPauline S. Townsend
p3966
aVCarin Kinzel
p3967
asS'Sherman, Roi'
p3968
(lp3969
VErnest L. Seymour
p3970
asS'Carnovsky, Morris'
p3971
(lp3972
VLarry Parks
p3973
asS'Cline,     Paul'
p3974
(lp3975
VLou Rosser
p3976
asS'Buchman. Harold'
p3977
(lp3978
VRobert Rossen
p3979
aVDavid A. Lang
p3980
aVPauline S. Townsend
p3981
aVRoland W. Kibbee
p3982
asS'Hedley, Dave'
p3983
(lp3984
VLou Rosser
p3985
asS'Corona, Bert'
p3986
(lp3987
VLou Rosser
p3988
asS'Gordon, Frances'
p3989
(lp3990
VMrs. Harry                          John Mills Davis
p3991
aVMrs. Harry
p3992
aVSamuel Evens
p3993
asS'Pratt, Ida'
p3994
(lp3995
VMrs.        Horace Pratt
p3996
aVEdith Macia
p3997
asS'Starr, Loretta'
p3998
(lp3999
VHarry      J.   Marks
p4000
asS'Keller, Morris'
p4001
(lp4002
VDickson P.   Hill
p4003
asS'Spencer, Ray'
p4004
(lp4005
VShor
p4006
asS'Grossenbacher, Carl'
p4007
(lp4008
VWilliam T. Martin
p4009
aVIsadore Amdur
p4010
asS'Sondergaard, Gale'
p4011
(lp4012
VMrs. Herbert Biber
p4013
aVLarry Parks
p4014
aVLee                                           J. Cobb
p4015
asS'Gonzales, Ella'
p4016
(lp4017
VMary   E. P. Bradsher
p4018
asS'Gilbert,       Jody'
p4019
(lp4020
VHarvey Narcisenfeld
p4021
asS'Salt, Waldo'
p4022
(lp4023
VDavid A. Lang
p4024
aVShor
p4025
aVRoland W. Kibbee
p4026
asS'Bowen, Mildred'
p4027
(lp4028
VCharles D. Blodgett
p4029
asS'Holmstock, Ethel'
p4030
(lp4031
VAnne Kinney
p4032
asS'Corngold, Libby'
p4033
(lp4034
VLou Rosser
p4035
asS'Smith. Ferdinand C'
p4036
(lp4037
VK. Frmn
p4038
asS'Stack, Walter'
p4039
(lp4040
VLou Rosser
p4041
aVJames Kendall
p4042
asS'Martin, Betty.'
p4043
(lp4044
VAnne Kinney
p4045
asS'Seymour, Ernest Leroy'
p4046
(lp4047
VMr. Seymour
p4048
asS'Riibiu, Jay'
p4049
(lp4050
VNicholas Campas
p4051
aVJack Davis
p4052
aVJack Davis
p4053
aVJay Rubin
p4054
asS'Bernstein, Sanford'
p4055
(lp4056
VEdith Macia
p4057
asS'Creque, Rosalie'
p4058
(lp4059
VMrs. William Creque
p4060
aVDickson P.   Hill
p4061
asS'Rapf, John'
p4062
(lp4063
VRoy Erwin
p4064
asS'Kalman, Bernice'
p4065
(lp4066
VDickson P. Hill
p4067
aVBertha Grover
p4068
aVWilliam D. Ames
p4069
aVBertha Grover
p4070
asS'White, Al'
p4071
(lp4072
VMary   E. P. Bradsher
p4073
asS'Rapf, Mrs. Maurice'
p4074
(lp4075
VPauline S. Townsend
p4076
asS'Nidiss, Bernie'
p4077
(lp4078
VEdith Macia
p4079
asS'Hay, Marjorie'
p4080
(lp4081
VLeRoy Herndon
p4082
asS'Boretz, Allen'
p4083
(lp4084
VDavid A. Lang
p4085
asS'Attarian, Sally'
p4086
(lp4087
VMrs.             Aram    Attarian
p4088
aVCharles D. Blodgett
p4089
asS'Ruthven, Madelaine'
p4090
(lp4091
VHarold Hecht
p4092
aVHolly
p4093
aVDavid A. Lang
p4094
aVPauline S. Townsend
p4095
aVRobert Rossen
p4096
asS'Evans, Gertrude'
p4097
(lp4098
VDorothy K. Funn
p4099
asS'McMullen, Elizabeth'
p4100
(lp4101
VDickson P.            Hill
p4102
aVMrs. Arthur Mayhew
p4103
asS'Tyne. George'
p4104
(lp4105
VLee J. Cobb
p4106
asS'Perlman, Norman'
p4107
(lp4108
VEdith Macia
p4109
asS'Trmiibo, Dalton'
p4110
(lp4111
VDavid A. Lang
p4112
aVMax Benoff
p4113
aVLeopold Atlas
p4114
aVRobert Rossen
p4115
asS'Gentilli, Salvatore'
p4116
(lp4117
VJack Davis
p4118
asS'Lyon, Peter'
p4119
(lp4120
VPauline S. Townsend
p4121
aVLee J. Cobb
p4122
asS'Cohen, Flo'
p4123
(lp4124
VMrs. Ralph Cohen
p4125
aVJohn Mills Davis
p4126
aVSamuel Evens
p4127
asS'Teague, Emmett'
p4128
(lp4129
VDickson P.   Hill
p4130
asS'Dickerson, Mrs. Kathleen'
p4131
(lp4132
VWilliam D. Ames
p4133
asS'Fialkoff, Si'
p4134
(lp4135
VNicholas Campas
p4136
asS'Cole, Johnny'
p4137
(lp4138
VLeopold Atlas
p4139
asS'Gordon, Julian'
p4140
(lp4141
VAnne Kinney
p4142
asS'Stanley, Al'
p4143
(lp4144
VDickson P. Hill
p4145
aVKerke
p4146
asS'Downs, Tommy'
p4147
(lp4148
VEdith Macia
p4149
asS'Dwinnell, Robert'
p4150
(lp4151
VCharles D. Blodgett
p4152
asS'White, Charlie'
p4153
(lp4154
VLeonard Patterson
p4155
aVMr. White
p4156
asS'Karson, Ethel'
p4157
(lp4158
VEdith   Macia
p4159
asS'Davis, Clara'
p4160
(lp4161
VMrs. John Davis
p4162
aVSamuel Evens
p4163
asS'Douglas, Dorothy W'
p4164
(lp4165
VRobert Gorham Davis
p4166
asS'Wixman, Myrtle'
p4167
(lp4168
VMrs. Sam Wixman
p4169
aVAnne Kinney
p4170
asS'Fast,    Howard'
p4171
(lp4172
VPauline S. Townsend
p4173
asS'Haddock, Hoyt'
p4174
(lp4175
VDorothy K. Funn
p4176
asS'Glenn, Charles'
p4177
(lp4178
VCarin Kinzel
p4179
aVSilvia Richards
p4180
asS'Morris, George'
p4181
(lp4182
VLou Rosser
p4183
asS'Baron, Bea'
p4184
(lp4185
VAnne Kinney
p4186
asS'Winter, Helen Allison'
p4187
(lp4188
VMrs. Carl Win
p4189
aVBereniece Baldwin
p4190
asS'Wilson, Margaret'
p4191
(lp4192
VAnne Kinney
p4193
asS'Brodsky, Carl'
p4194
(lp4195
VJohn Mills Davis
p4196
asS'Mr. Kendall also'
p4197
(lp4198
VCharles DavidBlodgett
p4199
aVMr. Blodgett
p4200
aVMr. Blodgett
p4201
aVMr. Blodgett
p4202
asS'Buchman, Mrs. Harold'
p4203
(lp4204
VPauline S. Townsend
p4205
asS'Newman, Mort'
p4206
(lp4207
VLou Rosser
p4208
aVMr. Mort Newman
p4209
asS'Hanson, Mrs. Evelyn'
p4210
(lp4211
VCharles D. Blodgett
p4212
asS'Libby,Mack'
p4213
(lp4214
VHarry                       J.   Marks
p4215
asS'Salit, Fran'
p4216
(lp4217
VEdith Macia
p4218
asS'Schneiderman, Lou.'
p4219
(lp4220
VLou Sher
p4221
asS'Willner, Tiba'
p4222
(lp4223
VMrs. George Willner
p4224
aVSilvia Richards
p4225
aVBabbette Lang
p4226
asS'Norman, Harry'
p4227
(lp4228
VEdith Macia
p4229
aVJoseph                                          David A. Lang
p4230
asS'Brown. Al'
p4231
(lp4232
VCharles D. Blodgett
p4233
asS'Berman, Lionel'
p4234
(lp4235
VJerome Bobbins
p4236
asS'Green, Walter'
p4237
(lp4238
VDickson P. Hill
p4239
aVCharles D. Blodgett
p4240
aVWilliam D. Ames
p4241
as.