(dp0
Vjoe charlotte darling adams
p1
c__builtin__
set
p2
((lp3
Vedith macia
p4
atp5
Rp6
sS'william e. oliver'
p7
g2
((lp8
Valice bennett
p9
aVurcel daniel
p10
atp11
Rp12
sS'william bender'
p13
g2
((lp14
Vjohn mills davis
p15
atp16
Rp17
sS'sidney freeman'
p18
g2
((lp19
Vleroy herndon
p20
atp21
Rp22
sS'paul cline'
p23
g2
((lp24
Vcharles h. garrigues
p25
aVanne kinney
p26
atp27
Rp28
sS'rose malloy'
p29
g2
((lp30
g4
atp31
Rp32
sS'julius jacobs'
p33
g2
((lp34
Vdorothy k. funn
p35
atp36
Rp37
sS'john morgan'
p38
g2
((lp39
Vcharles d. blodgett
p40
atp41
Rp42
sS'abe gelbart'
p43
g2
((lp44
Vwilliam t. martin
p45
aVisadore amdur
p46
aVnorman levinson
p47
atp48
Rp49
sS'douglas w ward'
p50
g2
((lp51
g40
atp52
Rp53
sS'hilda geller'
p54
g2
((lp55
g15
aVsamuel evens
p56
atp57
Rp58
sS'herman waldreen'
p59
g2
((lp60
Vdavid wolfe
p61
aVrobert gladnick
p62
aVherman waldman
p63
atp64
Rp65
sS'dorothy w. douglas'
p66
g2
((lp67
Vrobert gorham davis
p68
atp69
Rp70
sS'john leech'
p71
g2
((lp72
g26
atp73
Rp74
sS'robert cohen'
p75
g2
((lp76
g35
atp77
Rp78
sVdildar sandow
p79
g2
((lp80
Vdickson p. hill
p81
ag79
atp82
Rp83
sS'herbert biberman'
p84
g2
((lp85
Vharold hecht
p86
aVgertrude purcell
p87
aVleopold atlas
p88
aVroland w. kibbee
p89
atp90
Rp91
sVmr. lusher
p92
g2
((lp93
Vmr. mc
p94
atp95
Rp96
sS'anne froelich'
p97
g2
((lp98
g88
atp99
Rp100
sS'victor shapiro'
p101
g2
((lp102
Vdavid a. lang
p103
aVrobert rossen
p104
ag88
atp105
Rp106
sS'bill rutter'
p107
g2
((lp108
g81
atp109
Rp110
sS'jean hedley'
p111
g2
((lp112
g81
atp113
Rp114
sVzachary schwartz
p115
g2
((lp116
g4
atp117
Rp118
sS'frances itskowitz'
p119
g2
((lp120
S'mike gold'
p121
aVfrances gordon
p122
atp123
Rp124
sS'ruth jennings'
p125
g2
((lp126
g125
aVnicholas campas
p127
atp128
Rp129
sS'jessie carufo'
p130
g2
((lp131
Vbabbette lang
p132
atp133
Rp134
sS'carl grossenbacher'
p135
g2
((lp136
g45
ag46
atp137
Rp138
sS'dorothy woods'
p139
g2
((lp140
g81
atp141
Rp142
sS'charles oberkirch'
p143
g2
((lp144
g81
aVjack davis
p145
atp146
Rp147
sS'mike yarman'
p148
g2
((lp149
g127
atp150
Rp151
sS'katrina manley'
p152
g2
((lp153
g81
aVbertha grover
p154
atp155
Rp156
sS'joe rohr'
p157
g2
((lp158
g4
atp159
Rp160
sS'david herman'
p161
g2
((lp162
g127
ag161
ag145
atp163
Rp164
sS'arthur o wright'
p165
g2
((lp166
Vmr. wright
p167
atp168
Rp169
sS'benny goodman'
p170
g2
((lp171
g26
atp172
Rp173
sS'leon meadows'
p174
g2
((lp175
Vcarin kinzel
p176
atp177
Rp178
sS'stanley chapman'
p179
g2
((lp180
g35
atp181
Rp182
sS'irving velson'
p183
g2
((lp184
g62
atp185
Rp186
sS'andy charles'
p187
g2
((lp188
Vlou rosser
p189
ag94
atp190
Rp191
sS'tillie olelvsiuk'
p192
g2
((lp193
g4
atp194
Rp195
sS'lee gold'
p196
g2
((lp197
Vmrs. irving
p198
aVsilvia richards
p199
aVmrs. nathan gold
p200
ag15
ag56
atp201
Rp202
sS'bill redner'
p203
g2
((lp204
Vmary e. p. bradsher
p205
atp206
Rp207
sS'florence jacobs'
p208
g2
((lp209
Vn. y.
p210
ag35
atp211
Rp212
sS'harry gordon'
p213
g2
((lp214
g68
ag62
ag15
ag56
atp215
Rp216
sS'nicholas c bartlett'
p217
g2
((lp218
g94
atp219
Rp220
sS'aram attarian'
p221
g2
((lp222
g40
atp223
Rp224
sS'peter lyon'
p225
g2
((lp226
Vlee j. cobb
p227
aVpauline s. townsend
p228
atp229
Rp230
sS'paul heide'
p231
g2
((lp232
g189
ag81
ag40
atp233
Rp234
sS'mitchell lindeman'
p235
g2
((lp236
g176
atp237
Rp238
sS'daniel mccombe'
p239
g2
((lp240
Vmr. kaplan
p241
atp242
Rp243
sS'david saunders'
p244
g2
((lp245
g210
aVjames kendall
p246
atp247
Rp248
sS'neil hignian'
p249
g2
((lp250
g26
atp251
Rp252
sS'salvatore gentilli'
p253
g2
((lp254
g145
atp255
Rp256
sS'virgil akeson'
p257
g2
((lp258
g35
atp259
Rp260
sS'carmen melia'
p261
g2
((lp262
g40
atp263
Rp264
sS'viola b shore'
p265
g2
((lp266
g132
atp267
Rp268
sS'calif hayward'
p269
g2
((lp270
g81
atp271
Rp272
sS'clare burnstein'
p273
g2
((lp274
g132
atp275
Rp276
sS'irving gold'
p277
g2
((lp278
g15
ag56
atp279
Rp280
sS'irvin richter'
p281
g2
((lp282
g35
atp283
Rp284
sS'mildred flacks'
p285
g2
((lp286
g35
atp287
Rp288
sS'arnold manoff'
p289
g2
((lp290
g103
ag227
ag88
ag199
atp291
Rp292
sS'bill ingham'
p293
g2
((lp294
g26
atp295
Rp296
sS'joe mcclosky'
p297
g2
((lp298
g4
atp299
Rp300
sS'donald n wheeler'
p301
g2
((lp302
g228
ag94
aVelizabeth bentley
p303
atp304
Rp305
sS'marjorie robinson'
p306
g2
((lp307
g4
atp308
Rp309
sS'hank morley'
p310
g2
((lp311
Vdarling adams
p312
atp313
Rp314
sS'lawrence west'
p315
g2
((lp316
g26
atp317
Rp318
sS'selma bachelis'
p319
g2
((lp320
g312
atp321
Rp322
sS'gertrude selig'
p323
g2
((lp324
g26
atp325
Rp326
sVmr. rossen
p327
g2
((lp328
Vlarry parks
p329
atp330
Rp331
sS'david perloff'
p332
g2
((lp333
g94
aVabraham lin
p334
atp335
Rp336
sS'angela clarke'
p337
g2
((lp338
g176
atp339
Rp340
sS'anya lieberson'
p341
g2
((lp342
g26
atp343
Rp344
sS'murry wagner'
p345
g2
((lp346
Vdwight hauser
p347
atp348
Rp349
sS'sam telford'
p350
g2
((lp351
g210
ag246
atp352
Rp353
sS'rose segure'
p354
g2
((lp355
g26
atp356
Rp357
sS'mason roberson'
p358
g2
((lp359
g40
atp360
Rp361
sS'richard frank'
p362
g2
((lp363
Vbella v. dodd
p364
atp365
Rp366
sS'jake price'
p367
g2
((lp368
Vwilliam d. ames
p369
atp370
Rp371
sS'sarah wepman'
p372
g2
((lp373
Vmrs. wepman
p374
atp375
Rp376
sS'kate lawson'
p377
g2
((lp378
g312
atp379
Rp380
sS'karen morley'
p381
g2
((lp382
Vroy erwin
p383
ag329
atp384
Rp385
sS'billie wachter'
p386
g2
((lp387
g81
ag369
atp388
Rp389
sS'gladys black'
p390
g2
((lp391
g369
ag40
ag154
atp392
Rp393
sS'fran salit'
p394
g2
((lp395
g4
atp396
Rp397
sS'clara riebej'
p398
g2
((lp399
g35
atp400
Rp401
sS'edward chodorov'
p402
g2
((lp403
Vjerome robbins
p404
atp405
Rp406
sS'sandra martin'
p407
g2
((lp408
g40
atp409
Rp410
sS'sam edelsteiu'
p411
g2
((lp412
g127
atp413
Rp414
sS'richard o. boyer'
p415
g2
((lp416
g228
atp417
Rp418
sS'kelly douglas'
p419
g2
((lp420
g56
atp421
Rp422
sS'will campbell'
p423
g2
((lp424
g40
atp425
Rp426
sS'arthur l. levy'
p427
g2
((lp428
g427
atp429
Rp430
sS'cliff stice'
p431
g2
((lp432
g4
atp433
Rp434
sS'beruyce p fleury'
p435
g2
((lp436
Vmrs. fleury
p437
atp438
Rp439
sS'dorothy comingore'
p440
g2
((lp441
g103
atp442
Rp443
sS'albert lockett'
p444
g2
((lp445
g26
atp446
Rp447
sS'charlie busk'
p448
g2
((lp449
g154
atp450
Rp451
sS'herbert davis'
p452
g2
((lp453
Vherbert goldfrank
p454
atp455
Rp456
sS'june kelleher'
p457
g2
((lp458
g4
atp459
Rp460
sS'joseph melia'
p461
g2
((lp462
g81
ag40
ag369
atp463
Rp464
sS'clarence tobet'
p465
g2
((lp466
g81
ag369
ag94
atp467
Rp468
sS'clarence davis'
p469
g2
((lp470
g40
atp471
Rp472
sS'also he fascism'
p473
g2
((lp474
Vmanning johnson
p475
ag94
aVjohn edmiston
p476
aVleonard patterson
p477
atp478
Rp479
sS'richard younce'
p480
g2
((lp481
g40
atp482
Rp483
sS'ben olson'
p484
g2
((lp485
g199
ag35
atp486
Rp487
sS'barbara wooley'
p488
g2
((lp489
S'angus wooley'
p490
ag228
aVbarbara roberts
p491
atp492
Rp493
sS'mike obermier'
p494
g2
((lp495
g127
ag145
atp496
Rp497
sS'henriette martin'
p498
g2
((lp499
g103
ag228
atp500
Rp501
sS'charlotte wacker'
p502
g2
((lp503
g35
atp504
Rp505
sg189
g2
((lp506
g189
ag94
atp507
Rp508
sS'louis ivens'
p509
g2
((lp510
g94
atp511
Rp512
sS'bill williams'
p513
g2
((lp514
g369
atp515
Rp516
sS'oscar fuss'
p517
g2
((lp518
g26
atp519
Rp520
sS'robert rutman'
p521
g2
((lp522
g94
atp523
Rp524
sS'pete matanami'
p525
g2
((lp526
g81
atp527
Rp528
sS'james gilliam'
p529
g2
((lp530
g369
atp531
Rp532
sS'nina oster'
p533
g2
((lp534
g4
atp535
Rp536
sS'sig hesse'
p537
g2
((lp538
g81
atp539
Rp540
sS'barbara darling'
p541
g2
((lp542
g210
atp543
Rp544
sS'harry c. steinmetz'
p545
g2
((lp546
g26
atp547
Rp548
sS'wilhelmina maise'
p549
g2
((lp550
g26
atp551
Rp552
sS'joe lash'
p553
g2
((lp554
g94
ag477
atp555
Rp556
sS'johnny weber'
p557
g2
((lp558
Vharry j. marks
p559
atp560
Rp561
sS'euenore abowitz'
p562
g2
((lp563
g94
ag26
atp564
Rp565
sS'harry carlyle'
p566
g2
((lp567
g383
ag228
atp568
Rp569
sS'john poziomek'
p570
g2
((lp571
g189
ag15
ag56
atp572
Rp573
sS'george blake'
p574
g2
((lp575
g15
atp576
Rp577
sS'philip stevenson'
p578
g2
((lp579
g88
ag228
atp580
Rp581
sS'kathleen dickerson'
p582
g2
((lp583
g369
atp584
Rp585
sS'lou harris'
p586
g2
((lp587
g104
ag89
atp588
Rp589
sS'sarah. hartman'
p590
g2
((lp591
g590
atp592
Rp593
sS'jules carson'
p594
g2
((lp595
g26
atp596
Rp597
sS'helen leonard'
p598
g2
((lp599
g103
ag132
ag228
atp600
Rp601
sS'tassia freed'
p602
g2
((lp603
g26
atp604
Rp605
sS'wendell h. furry'
p606
g2
((lp607
g68
ag45
aVgranville hicks
p608
atp609
Rp610
sS'jacob geyer'
p611
g2
((lp612
g4
atp613
Rp614
sS'sadie ornitz'
p615
g2
((lp616
g132
ag145
atp617
Rp618
sS'elizabeth grant'
p619
g2
((lp620
g88
atp621
Rp622
sS'estelle foreman'
p623
g2
((lp624
g103
ag132
atp625
Rp626
sS'al saxton'
p627
g2
((lp628
Vernest l. seymour
p629
atp630
Rp631
sS'martin mackie'
p632
g2
((lp633
g40
atp634
Rp635
sS'nicholas bela'
p636
g2
((lp637
g103
ag228
atp638
Rp639
sS'rose most'
p640
g2
((lp641
g20
ag26
atp642
Rp643
sS'betty gannett'
p644
g2
((lp645
g26
atp646
Rp647
sS'naomi robeson'
p648
g2
((lp649
g88
ag347
atp650
Rp651
sS'martha lepowsky'
p652
g2
((lp653
Vmrs. john edith
p654
ag35
atp655
Rp656
sS'howland chamberlin'
p657
g2
((lp658
g26
atp659
Rp660
sS'joe lynch'
p661
g2
((lp662
g629
atp663
Rp664
sS'ann r morgan'
p665
g2
((lp666
S'ann rotti'
p667
atp668
Rp669
sS'ohio. as cokimbus'
p670
g2
((lp671
Vbyron thorwell darling
p672
ag364
atp673
Rp674
sS'frauces capelle'
p675
g2
((lp676
g81
ag154
ag369
atp677
Rp678
sS'pele edises'
p679
g2
((lp680
g40
atp681
Rp682
sS'sam darcy'
p683
g2
((lp684
g189
aS'joe koide'
p685
atp686
Rp687
sS'clariua michelson'
p688
g2
((lp689
g475
atp690
Rp691
sS'catherine becker'
p692
g2
((lp693
g228
atp694
Rp695
sS'jody gilbert'
p696
g2
((lp697
Vharvey narcisenfeld
p698
atp699
Rp700
sS'john bittman'
p701
g2
((lp702
g40
atp703
Rp704
sS'vern anthony'
p705
g2
((lp706
g4
atp707
Rp708
sg685
g2
((lp709
g4
ag94
atp710
Rp711
sS'sam ornitz'
p712
g2
((lp713
g62
ag81
atp714
Rp715
sS'jack wetherwax'
p716
g2
((lp717
g26
atp718
Rp719
sS'ruth hultgren'
p720
g2
((lp721
g40
ag369
atp722
Rp723
sS'ruth h. wellnian'
p724
g2
((lp725
g4
atp726
Rp727
sS'ballis blaisdell'
p728
g2
((lp729
g94
atp730
Rp731
sS'dorothy tree'
p732
g2
((lp733
g227
ag329
atp734
Rp735
sS'helen jacobson'
p736
g2
((lp737
g15
atp738
Rp739
sS'margaret wilson'
p740
g2
((lp741
g189
ag26
atp742
Rp743
sS'edith landall'
p744
g2
((lp745
g4
ag103
ag104
ag228
ag89
atp746
Rp747
sS'william pomerance'
p748
g2
((lp749
g228
ag104
ag312
atp750
Rp751
sS'bertram edises'
p752
g2
((lp753
g40
atp754
Rp755
sS'jack manley'
p756
g2
((lp757
g81
atp758
Rp759
sS'milton casluier'
p760
g2
((lp761
g26
atp762
Rp763
sS'sidney weinbaum'
p764
g2
((lp765
g20
atp766
Rp767
sS'john jeffrey'
p768
g2
((lp769
g86
ag26
ag477
atp770
Rp771
sS'barrows dunham'
p772
g2
((lp773
g94
atp774
Rp775
sS'ishmael flory'
p776
g2
((lp777
g127
ag145
atp778
Rp779
sS'isadore reivich'
p780
g2
((lp781
g94
atp782
Rp783
sS'rose kliue'
p784
g2
((lp785
g4
atp786
Rp787
sS'sophia elfont'
p788
g2
((lp789
Vstetson junior
p790
aVmiss ell
p791
atp792
Rp793
sS'hyman koppelman'
p794
g2
((lp795
g35
atp796
Rp797
sS'sidney benson'
p798
g2
((lp799
g228
atp800
Rp801
sS'bill young'
p802
g2
((lp803
g199
atp804
Rp805
sS'max posey'
p806
g2
((lp807
g189
atp808
Rp809
sS'betty seklen'
p810
g2
((lp811
g26
atp812
Rp813
sS'naomi workman'
p814
g2
((lp815
g62
atp816
Rp817
sS'rude lauibtmt'
p818
g2
((lp819
g26
atp820
Rp821
sS'margaret gilbert'
p822
g2
((lp823
Vherbert a. philbrick
p824
atp825
Rp826
sS'david kinkead'
p827
g2
((lp828
g81
atp829
Rp830
sS'ferdinand c smith'
p831
g2
((lp832
g246
ag35
atp833
Rp834
sS'sam cloner'
p835
g2
((lp836
g312
atp837
Rp838
sS'joan place'
p839
g2
((lp840
g26
atp841
Rp842
sS'celia wilhy'
p843
g2
((lp844
g199
atp845
Rp846
sS'gertrude fuller'
p847
g2
((lp848
g88
atp849
Rp850
sS'julian zimet'
p851
g2
((lp852
g103
ag228
atp853
Rp854
sS'william winston'
p855
g2
((lp856
g56
atp857
Rp858
sS'marvin bargeman'
p859
g2
((lp860
g103
atp861
Rp862
sS'lou baron'
p863
g2
((lp864
g26
atp865
Rp866
sS'gale sondergaard'
p867
g2
((lp868
Vmr. gerber
p869
ag227
ag329
atp870
Rp871
sS'albert byler'
p872
g2
((lp873
g26
atp874
Rp875
sS'bert cooper'
p876
g2
((lp877
g383
atp878
Rp879
sS'al white'
p880
g2
((lp881
g4
ag94
ag477
ag189
ag205
atp882
Rp883
sVmr. goldstein
p884
g2
((lp885
g4
ag94
aVherbert philbrick
p886
atp887
Rp888
sS'josephine. woods'
p889
g2
((lp890
S'ida wood'
p891
atp892
Rp893
sS'eddie fisher'
p894
g2
((lp895
g26
atp896
Rp897
sS'norman byrne'
p898
g2
((lp899
g20
atp900
Rp901
sS'ethel karson'
p902
g2
((lp903
g4
atp904
Rp905
sS'ben pollin'
p906
g2
((lp907
g383
atp908
Rp909
sS'charles reichman'
p910
g2
((lp911
g4
atp912
Rp913
sS'marjorie eisler'
p914
g2
((lp915
g40
ag154
atp916
Rp917
sS'kenneth roberts'
p918
g2
((lp919
g40
atp920
Rp921
sS'shirley taylor'
p922
g2
((lp923
g35
atp924
Rp925
sS'rosalie crockett'
p926
g2
((lp927
g369
atp928
Rp929
sS'ben dobbs'
p930
g2
((lp931
g189
atp932
Rp933
sS'joe terry'
p934
g2
((lp935
g40
atp936
Rp937
sS'libby jacobson'
p938
g2
((lp939
g26
atp940
Rp941
sS'millard lanipell'
p942
g2
((lp943
g199
atp944
Rp945
sS'mortimer offner'
p946
g2
((lp947
g103
aVsol shor
p948
atp949
Rp950
sS'clarence hathaway'
p951
g2
((lp952
g475
atp953
Rp954
sS'bertha bargeman'
p955
g2
((lp956
g103
atp957
Rp958
sS'fanya friedman'
p959
g2
((lp960
g26
atp961
Rp962
sg61
g2
((lp963
g59
ag199
atp964
Rp965
sS'cedric h belfrage'
p966
g2
((lp967
g94
atp968
Rp969
sS'wayne hultgren'
p970
g2
((lp971
g81
ag369
atp972
Rp973
sS'goldie gregurek'
p974
g2
((lp975
Vmrs. funn
p976
atp977
Rp978
sS'mary robinson'
p979
g2
((lp980
g383
atp981
Rp982
sS'edward huebsch'
p983
g2
((lp984
g103
atp985
Rp986
sS'harry campbell'
p987
g2
((lp988
g4
atp989
Rp990
sS'roi sherman'
p991
g2
((lp992
g189
ag629
atp993
Rp994
sS'albert maltz'
p995
g2
((lp996
g86
aVmax benoff
p997
ag88
ag132
atp998
Rp999
sS'george sklar'
p1000
g2
((lp1001
g103
atp1002
Rp1003
sS'helen gardner'
p1004
g2
((lp1005
g26
atp1006
Rp1007
sS'joe ayeroff'
p1008
g2
((lp1009
g189
atp1010
Rp1011
sS'elizabeth leech'
p1012
g2
((lp1013
Vbart lytton
p1014
ag26
ag228
atp1015
Rp1016
sS'herb kalman'
p1017
g2
((lp1018
g81
ag154
ag629
atp1019
Rp1020
sS'sylvia siegel'
p1021
g2
((lp1022
g86
ag948
atp1023
Rp1024
sVharold t. woerner, jr.
p1025
g2
((lp1026
g94
atp1027
Rp1028
sS'joe young'
p1029
g2
((lp1030
g189
aS'charles gladstone'
p1031
ag210
atp1032
Rp1033
sS'samuel sillen'
p1034
g2
((lp1035
g68
atp1036
Rp1037
sS'jules keivetz'
p1038
g2
((lp1039
g189
atp1040
Rp1041
sS'lillian lowenfels'
p1042
g2
((lp1043
Vmrs. ball
p1044
aVmrs. lowenfeb
p1045
ag26
atp1046
Rp1047
sS'sam kubin'
p1048
g2
((lp1049
g4
atp1050
Rp1051
sS'bill ellis'
p1052
g2
((lp1053
g62
ag94
atp1054
Rp1055
sS'david flacks'
p1056
g2
((lp1057
g35
atp1058
Rp1059
sS'elaine gonda'
p1060
g2
((lp1061
g176
atp1062
Rp1063
sS'inez hearn'
p1064
g2
((lp1065
g40
atp1066
Rp1067
sS'charles klare'
p1068
g2
((lp1069
g4
ag94
atp1070
Rp1071
sS'juanita wheeler'
p1072
g2
((lp1073
g40
atp1074
Rp1075
sS'solomon haas'
p1076
g2
((lp1077
g94
atp1078
Rp1079
sS'frances tandy'
p1080
g2
((lp1081
g81
atp1082
Rp1083
sS'jessie pedrick'
p1084
g2
((lp1085
g189
ag81
aVmax appleman
p1086
ag154
atp1087
Rp1088
sS'leona mcginty'
p1089
g2
((lp1090
g26
aVmrs. howland cham
p1091
atp1092
Rp1093
sValice wil
p1094
g2
((lp1095
S'alice wilson'
p1096
atp1097
Rp1098
sS'irene short'
p1099
g2
((lp1100
g1099
ag127
atp1101
Rp1102
sS'duncan keir'
p1103
g2
((lp1104
g94
ag246
atp1105
Rp1106
sS'elizabeth moos'
p1107
g2
((lp1108
g824
atp1109
Rp1110
sS'jack ginsberg'
p1111
g2
((lp1112
g26
atp1113
Rp1114
sS'miriam cliassen'
p1115
g2
((lp1116
g4
atp1117
Rp1118
sS'bob robinson'
p1119
g2
((lp1120
g4
atp1121
Rp1122
sS'ralph izzard'
p1123
g2
((lp1124
g40
atp1125
Rp1126
sS'ann yanish'
p1127
g2
((lp1128
g154
ag81
ag40
ag369
atp1129
Rp1130
sS'wilhelmina laughery'
p1131
g2
((lp1132
g154
ag205
ag369
ag81
atp1133
Rp1134
sS'zara becker'
p1135
g2
((lp1136
g26
aVrichard byrd lewis
p1137
atp1138
Rp1139
sS'margaret cowl'
p1140
g2
((lp1141
S'margaret undjus'
p1142
atp1143
Rp1144
sS'hannah shapiro'
p1145
g2
((lp1146
g15
ag56
atp1147
Rp1148
sS'lionel berman'
p1149
g2
((lp1150
g404
atp1151
Rp1152
sS'estelle n thomas'
p1153
g2
((lp1154
Vmiss thomas
p1155
atp1156
Rp1157
sS'si fialkoff'
p1158
g2
((lp1159
g127
atp1160
Rp1161
sg334
g2
((lp1162
g88
atp1163
Rp1164
sVpaul zilseh daniel fine
p1165
g2
((lp1166
Vpeter bent
p1167
atp1168
Rp1169
sS'moe finklestein'
p1170
g2
((lp1171
g364
atp1172
Rp1173
sS'luke hinman'
p1174
g2
((lp1175
g4
ag89
atp1176
Rp1177
sS'steve oleksink'
p1178
g2
((lp1179
g4
atp1180
Rp1181
sVmr. levy
p1182
g2
((lp1183
g559
atp1184
Rp1185
sVjack edith macia
p1186
g2
((lp1187
g246
atp1188
Rp1189
sS'caroline perloff'
p1190
g2
((lp1191
Vmrs. perloff
p1192
atp1193
Rp1194
sS'hyman s kraft'
p1195
g2
((lp1196
g104
atp1197
Rp1198
sS'marian shire'
p1199
g2
((lp1200
g26
atp1201
Rp1202
sS'william s. johnson'
p1203
g2
((lp1204
g35
atp1205
Rp1206
sS'seth levine'
p1207
g2
((lp1208
g35
atp1209
Rp1210
sS'tom chapman'
p1211
g2
((lp1212
g88
atp1213
Rp1214
sS'desired ball'
p1215
g2
((lp1216
g1044
ag241
atp1217
Rp1218
sS'john wexley'
p1219
g2
((lp1220
g103
ag1014
ag104
ag228
atp1221
Rp1222
sS'marjorie canrlght'
p1223
g2
((lp1224
g40
aVmrs. norman can
p1225
atp1226
Rp1227
sS'bob rasland'
p1228
g2
((lp1229
g205
atp1230
Rp1231
sS'eugene eagle'
p1232
g2
((lp1233
g81
atp1234
Rp1235
sS'david livingston'
p1236
g2
((lp1237
g94
atp1238
Rp1239
sS'richard b lewis'
p1240
g2
((lp1241
Vbart mar.
p1242
atp1243
Rp1244
sS'calvin batiste'
p1245
g2
((lp1246
g154
atp1247
Rp1248
sS'james lerner'
p1249
g2
((lp1250
Vbenjamin gitlow
p1251
atp1252
Rp1253
sS'steve murdock'
p1254
g2
((lp1255
g40
atp1256
Rp1257
sS'allen l ryan'
p1258
g2
((lp1259
g26
atp1260
Rp1261
sS'gene morse'
p1262
g2
((lp1263
g62
atp1264
Rp1265
sS'george sandy'
p1266
g2
((lp1267
g26
atp1268
Rp1269
sS'sanders shelf'
p1270
g2
((lp1271
g26
atp1272
Rp1273
sS'bjorne halliug'
p1274
g2
((lp1275
g35
ag629
atp1276
Rp1277
sS'george markham'
p1278
g2
((lp1279
g94
atp1280
Rp1281
sS'aubrey grossman'
p1282
g2
((lp1283
g189
ag81
ag94
atp1284
Rp1285
sS'tommy downs'
p1286
g2
((lp1287
g4
atp1288
Rp1289
sS'alfred levitt'
p1290
g2
((lp1291
g103
ag88
atp1292
Rp1293
sS'bill crockett'
p1294
g2
((lp1295
g369
atp1296
Rp1297
sS'george willner'
p1298
g2
((lp1299
g88
ag199
ag132
atp1300
Rp1301
sS'sam goodwin'
p1302
g2
((lp1303
g189
atp1304
Rp1305
sS'alexander riskin'
p1306
g2
((lp1307
g26
atp1308
Rp1309
sS'harry norman'
p1310
g2
((lp1311
g4
ag103
atp1312
Rp1313
sS'donald baker'
p1314
g2
((lp1315
g189
atp1316
Rp1317
sS'casey gurewitz'
p1318
g2
((lp1319
g35
atp1320
Rp1321
sS'edna ocko'
p1322
g2
((lp1323
g404
atp1324
Rp1325
sS'morrie smolan'
p1326
g2
((lp1327
g25
ag26
atp1328
Rp1329
sS'bill gandall'
p1330
g2
((lp1331
g62
atp1332
Rp1333
sS'reva handle'
p1334
g2
((lp1335
g26
atp1336
Rp1337
sS'tony s lucia'
p1338
g2
((lp1339
g62
atp1340
Rp1341
sS'gordon kahn'
p1342
g2
((lp1343
g86
ag103
ag997
ag88
atp1344
Rp1345
sS'robert arnold'
p1346
g2
((lp1347
g15
atp1348
Rp1349
sS'lynn hames'
p1350
g2
((lp1351
g40
atp1352
Rp1353
sS'irving myer'
p1354
g2
((lp1355
g4
atp1356
Rp1357
sS'alan philbrick'
p1358
g2
((lp1359
g559
atp1360
Rp1361
sS'harold klein'
p1362
g2
((lp1363
g127
ag15
ag56
atp1364
Rp1365
sS'ned young'
p1366
g2
((lp1367
g40
atp1368
Rp1369
sS'annette harper'
p1370
g2
((lp1371
g347
ag176
atp1372
Rp1373
sS'arcus reddock'
p1374
g2
((lp1375
g26
atp1376
Rp1377
sS'anna brickman'
p1378
g2
((lp1379
g15
ag56
atp1380
Rp1381
sS'don cameron'
p1382
g2
((lp1383
g629
atp1384
Rp1385
sS'langston hughes'
p1386
g2
((lp1387
g475
atp1388
Rp1389
sS'john bevins'
p1390
g2
((lp1391
g26
atp1392
Rp1393
sS'emily gordon'
p1394
g2
((lp1395
g26
atp1396
Rp1397
sS'ted kalman'
p1398
g2
((lp1399
g81
ag154
ag369
atp1400
Rp1401
sS'miss j gilbert'
p1402
g2
((lp1403
g40
atp1404
Rp1405
sS'violet orr'
p1406
g2
((lp1407
g189
atp1408
Rp1409
sS'charles gainor'
p1410
g2
((lp1411
Vdr. gainor
p1412
atp1413
Rp1414
sVmildred benoff
p1415
g2
((lp1416
g40
atp1417
Rp1418
sS'dave hedley'
p1419
g2
((lp1420
g189
atp1421
Rp1422
sS'frank beye'
p1423
g2
((lp1424
g4
ag26
atp1425
Rp1426
sS'betty arden'
p1427
g2
((lp1428
g26
atp1429
Rp1430
sS'bernard vorhaus'
p1431
g2
((lp1432
g104
atp1433
Rp1434
sS'sondra gorney'
p1435
g2
((lp1436
g1014
ag228
atp1437
Rp1438
sS'rubby sherr'
p1439
g2
((lp1440
g94
atp1441
Rp1442
sS'teresa kalman'
p1443
g2
((lp1444
g154
atp1445
Rp1446
sS'harry tanner'
p1447
g2
((lp1448
g132
atp1449
Rp1450
sS'kostas dakchoylous'
p1451
g2
((lp1452
g15
atp1453
Rp1454
sS'nathan w margolis'
p1455
g2
((lp1456
g94
atp1457
Rp1458
sS'bella reynolds'
p1459
g2
((lp1460
Vbella lewitzky
p1461
atp1462
Rp1463
sS'blackie meyers'
p1464
g2
((lp1465
g246
atp1466
Rp1467
sS'nina handman'
p1468
g2
((lp1469
g4
atp1470
Rp1471
sS'git perlman'
p1472
g2
((lp1473
g4
atp1474
Rp1475
sS'joe adams'
p1476
g2
((lp1477
g4
atp1478
Rp1479
sS'esther j wagner'
p1480
g2
((lp1481
g132
atp1482
Rp1483
sS'tamara hovey'
p1484
g2
((lp1485
g199
atp1486
Rp1487
sS'hallie jonas'
p1488
g2
((lp1489
g176
atp1490
Rp1491
sS'john spears'
p1492
g2
((lp1493
g26
atp1494
Rp1495
sS'lloyd lehman'
p1496
g2
((lp1497
g189
ag81
atp1498
Rp1499
sS'saul wachter'
p1500
g2
((lp1501
g369
atp1502
Rp1503
sS'george siskin'
p1504
g2
((lp1505
g189
atp1506
Rp1507
sS'cleveland hearn'
p1508
g2
((lp1509
g40
atp1510
Rp1511
sS'alfred wagenknecht'
p1512
g2
((lp1513
g475
atp1514
Rp1515
sS'gene lien'
p1516
g2
((lp1517
g81
ag205
atp1518
Rp1519
sS'holland roberts'
p1520
g2
((lp1521
g26
atp1522
Rp1523
sS'paul r zllsel'
p1524
g2
((lp1525
g94
atp1526
Rp1527
sS'sam kramberg'
p1528
g2
((lp1529
g127
atp1530
Rp1531
sS'daniel b schirmer'
p1532
g2
((lp1533
g559
atp1534
Rp1535
sS'sam gelfand'
p1536
g2
((lp1537
g26
atp1538
Rp1539
sS'howard fast'
p1540
g2
((lp1541
g228
atp1542
Rp1543
sS'louis geller'
p1544
g2
((lp1545
g127
ag15
ag56
ag94
atp1546
Rp1547
sS'herman beilan'
p1548
g2
((lp1549
g94
atp1550
Rp1551
sVmrs. dave sharf
p1552
g2
((lp1553
g4
atp1554
Rp1555
sS'jens simousgard'
p1556
g2
((lp1557
g26
atp1558
Rp1559
sS'james branca'
p1560
g2
((lp1561
g35
atp1562
Rp1563
sS'paul curtis'
p1564
g2
((lp1565
g103
atp1566
Rp1567
sS'leo baroway'
p1568
g2
((lp1569
g26
atp1570
Rp1571
sS'pettis perry'
p1572
g2
((lp1573
g26
atp1574
Rp1575
sS'lester cole'
p1576
g2
((lp1577
g103
ag88
ag104
ag948
atp1578
Rp1579
sS'pauline laserfin'
p1580
g2
((lp1581
g103
atp1582
Rp1583
sS'ella gonzales'
p1584
g2
((lp1585
g205
atp1586
Rp1587
sS'nerval crutcher'
p1588
g2
((lp1589
g312
atp1590
Rp1591
sS'ida rothstein'
p1592
g2
((lp1593
g189
atp1594
Rp1595
sS'ann white'
p1596
g2
((lp1597
g383
ag176
atp1598
Rp1599
sS'lloyd seeliger'
p1600
g2
((lp1601
g189
atp1602
Rp1603
sVmr. green
p1604
g2
((lp1605
g94
ag40
ag369
ag81
atp1606
Rp1607
sS'henrietta palley'
p1608
g2
((lp1609
g26
atp1610
Rp1611
sg1031
g2
((lp1612
g4
atp1613
Rp1614
sVu. s.
p1615
g2
((lp1616
Vjoseph klein
p1617
atp1618
Rp1619
sS'clement wilenchick'
p1620
g2
((lp1621
g94
atp1622
Rp1623
sS'esther soler'
p1624
g2
((lp1625
Vmrs. robert treu
p1626
aVwilliam b. mann school
p1627
atp1628
Rp1629
sS'harry tarnoff'
p1630
g2
((lp1631
g26
atp1632
Rp1633
sg698
g2
((lp1634
g94
atp1635
Rp1636
sS'barbara bick'
p1637
g2
((lp1638
g40
atp1639
Rp1640
sS'herbert klein'
p1641
g2
((lp1642
g26
atp1643
Rp1644
sS'neil crowe'
p1645
g2
((lp1646
g246
ag629
atp1647
Rp1648
sS'charles a duarte'
p1649
g2
((lp1650
g189
atp1651
Rp1652
sS'sid hoff'
p1653
g2
((lp1654
g62
atp1655
Rp1656
sS'mack libby'
p1657
g2
((lp1658
g559
atp1659
Rp1660
sS'goldie bromberg'
p1661
g2
((lp1662
g228
atp1663
Rp1664
sS'calvin cousins'
p1665
g2
((lp1666
g35
atp1667
Rp1668
sS'elias schwarzbart'
p1669
g2
((lp1670
g15
ag56
atp1671
Rp1672
sS'lucy arnold'
p1673
g2
((lp1674
g26
atp1675
Rp1676
sS'angelina riskin'
p1677
g2
((lp1678
g26
atp1679
Rp1680
sS'june naboisek'
p1681
g2
((lp1682
g205
atp1683
Rp1684
sg94
g2
((lp1685
Vruth mcgov
p1686
ag154
ag35
aVedna rosen
p1687
ag81
ag241
atp1688
Rp1689
sS'charles dorenz'
p1690
g2
((lp1691
g127
ag15
ag145
atp1692
Rp1693
sS'maurice rapf'
p1694
g2
((lp1695
g103
ag104
ag228
ag89
atp1696
Rp1697
sS'allen boretz'
p1698
g2
((lp1699
g103
atp1700
Rp1701
sS'william j. bailey'
p1702
g2
((lp1703
g246
atp1704
Rp1705
sS'goodman brudney'
p1706
g2
((lp1707
g40
atp1708
Rp1709
sS'gertrude warwick'
p1710
g2
((lp1711
g369
ag40
ag154
atp1712
Rp1713
sS'joe crago'
p1714
g2
((lp1715
g15
ag56
atp1716
Rp1717
sS'rob hall'
p1718
g2
((lp1719
g475
atp1720
Rp1721
sS'ruth finkelstein'
p1722
g2
((lp1723
g35
atp1724
Rp1725
sS'martha mcmullen'
p1726
g2
((lp1727
g81
aS'louis mcmullen'
p1728
atp1729
Rp1730
sS'lawn brooks'
p1731
g2
((lp1732
g4
atp1733
Rp1734
sVmr. andren
p1735
g2
((lp1736
g94
atp1737
Rp1738
sS'edith johnson'
p1739
g2
((lp1740
g4
atp1741
Rp1742
sS'edwina pomerance'
p1743
g2
((lp1744
g228
ag312
atp1745
Rp1746
sS'eugene a toopeekoff'
p1747
g2
((lp1748
g246
atp1749
Rp1750
sS'elena beck'
p1751
g2
((lp1752
g228
ag1415
atp1753
Rp1754
sS'rev. jack mcmichael'
p1755
g2
((lp1756
g475
ag1251
ag477
atp1757
Rp1758
sS'emil freed'
p1759
g2
((lp1760
g26
atp1761
Rp1762
sS'mary sherwood'
p1763
g2
((lp1764
g81
atp1765
Rp1766
sS'roger capelle'
p1767
g2
((lp1768
g81
ag154
atp1769
Rp1770
sS'florence tobey'
p1771
g2
((lp1772
g189
ag81
ag369
ag629
aVmr. tobey
p1773
atp1774
Rp1775
sS'miriam brooks'
p1776
g2
((lp1777
g26
atp1778
Rp1779
sS'lee coe'
p1780
g2
((lp1781
g81
ag40
ag369
atp1782
Rp1783
sS'norma barzman'
p1784
g2
((lp1785
g228
atp1786
Rp1787
sg122
g2
((lp1788
g15
aVmrs. harry john mills davis
p1789
ag56
atp1790
Rp1791
sS'jay moss'
p1792
g2
((lp1793
g26
atp1794
Rp1795
sS'bert corona'
p1796
g2
((lp1797
g189
atp1798
Rp1799
sS'fanny emer'
p1800
g2
((lp1801
g4
atp1802
Rp1803
sS'wesley bodkin'
p1804
g2
((lp1805
g81
ag40
atp1806
Rp1807
sS'henry blankfort'
p1808
g2
((lp1809
g103
ag104
ag347
ag176
atp1810
Rp1811
sS'kathleen hee'
p1812
g2
((lp1813
g40
atp1814
Rp1815
sS'preston hill'
p1816
g2
((lp1817
g189
ag40
atp1818
Rp1819
sS'john delgado'
p1820
g2
((lp1821
g40
atp1822
Rp1823
sS'lawrence arguimbau'
p1824
g2
((lp1825
g45
ag46
ag47
atp1826
Rp1827
sS'ole fagerhaugh'
p1828
g2
((lp1829
g40
atp1830
Rp1831
sVmary bradsher
p1832
g2
((lp1833
g1832
atp1834
Rp1835
sS'elliott grennard'
p1836
g2
((lp1837
g103
atp1838
Rp1839
sS'martin hall'
p1840
g2
((lp1841
g1251
atp1842
Rp1843
sS'sophia malloy'
p1844
g2
((lp1845
g4
atp1846
Rp1847
sg1617
g2
((lp1848
g127
ag312
atp1849
Rp1850
sg491
g2
((lp1851
g94
ag40
ag246
atp1852
Rp1853
sS'andrew mays'
p1854
g2
((lp1855
g154
atp1856
Rp1857
sS'joe carr'
p1858
g2
((lp1859
g127
ag145
atp1860
Rp1861
sS'georgia backus'
p1862
g2
((lp1863
g199
ag383
ag104
ag347
ag176
atp1864
Rp1865
sS'michael uris'
p1866
g2
((lp1867
g103
ag104
atp1868
Rp1869
sS'martha fletcher'
p1870
g2
((lp1871
g824
aVmrs. harry
p1872
atp1873
Rp1874
sS'dave grant'
p1875
g2
((lp1876
g559
atp1877
Rp1878
sS'james dow'
p1879
g2
((lp1880
g81
ag369
ag89
ag246
atp1881
Rp1882
sS'sam moore'
p1883
g2
((lp1884
g347
ag383
ag199
ag228
atp1885
Rp1886
sS'nathan goldstein'
p1887
g2
((lp1888
g15
ag56
atp1889
Rp1890
sS'jeauette dworkin'
p1891
g2
((lp1892
g15
ag56
atp1893
Rp1894
sg87
g2
((lp1895
g94
aVkapf maurice
p1896
aVpaul benedict mar. 12
p1897
atp1898
Rp1899
sS'leo selfrid'
p1900
g2
((lp1901
g26
atp1902
Rp1903
sg1728
g2
((lp1904
g81
atp1905
Rp1906
sS'sidney belinky'
p1907
g2
((lp1908
g15
ag56
atp1909
Rp1910
sS'charles a page'
p1911
g2
((lp1912
Vmorris appelman
p1913
atp1914
Rp1915
sVjack 01
p1916
g2
((lp1917
g68
ag608
ag189
ag40
ag26
aVgeorge mayberry
p1918
aVdaniel j. boorstin
p1919
ag205
ag47
atp1920
Rp1921
sS'florence mcdonald'
p1922
g2
((lp1923
g4
atp1924
Rp1925
sS'dave drummond'
p1926
g2
((lp1927
g62
ag94
atp1928
Rp1929
sS'ludwig donath'
p1930
g2
((lp1931
g227
atp1932
Rp1933
sS'lilith james'
p1934
g2
((lp1935
g1014
ag104
ag228
atp1936
Rp1937
sS'sally attarian'
p1938
g2
((lp1939
g40
atp1940
Rp1941
sS'connie l bennett'
p1942
g2
((lp1943
g103
atp1944
Rp1945
sS'serrill gerber'
p1946
g2
((lp1947
g4
ag189
atp1948
Rp1949
sS'max bogner'
p1950
g2
((lp1951
g26
atp1952
Rp1953
sS'peter stein'
p1954
g2
((lp1955
g94
atp1956
Rp1957
sS'herbert parker'
p1958
g2
((lp1959
g127
atp1960
Rp1961
sS'mary kotick'
p1962
g2
((lp1963
g15
atp1964
Rp1965
sS'doreen holtz'
p1966
g2
((lp1967
g4
atp1968
Rp1969
sS'harold buchman'
p1970
g2
((lp1971
g103
ag104
ag228
ag89
atp1972
Rp1973
sVann roth morgan
p1974
g2
((lp1975
g1974
atp1976
Rp1977
sS'edith hershey'
p1978
g2
((lp1979
g4
atp1980
Rp1981
sS'art wolstenholme'
p1982
g2
((lp1983
g40
atp1984
Rp1985
sS'rude lambert'
p1986
g2
((lp1987
g81
atp1988
Rp1989
sS'dolph winebrenner'
p1990
g2
((lp1991
g26
atp1992
Rp1993
sS'bess taffel'
p1994
g2
((lp1995
g103
ag88
atp1996
Rp1997
sg454
g2
((lp1998
g452
ag199
atp1999
Rp2000
sS'myrtle wixman'
p2001
g2
((lp2002
g26
atp2003
Rp2004
sS'paul jarrico'
p2005
g2
((lp2006
g997
ag104
ag205
atp2007
Rp2008
sS'freda spivak'
p2009
g2
((lp2010
g4
atp2011
Rp2012
sS'harry kramer'
p2013
g2
((lp2014
g40
atp2015
Rp2016
sS'robert wachsman'
p2017
g2
((lp2018
Vcharles daggett
p2019
atp2020
Rp2021
sS'lillian gerber'
p2022
g2
((lp2023
g4
atp2024
Rp2025
sS'charles hendley'
p2026
g2
((lp2027
g68
atp2028
Rp2029
sS'gene hammond'
p2030
g2
((lp2031
g205
atp2032
Rp2033
sS'godine eagle'
p2034
g2
((lp2035
g81
atp2036
Rp2037
sS'bob chasson'
p2038
g2
((lp2039
g189
ag94
ag26
atp2040
Rp2041
sS'minna klein'
p2042
g2
((lp2043
g26
atp2044
Rp2045
sS'warner calloway'
p2046
g2
((lp2047
g154
atp2048
Rp2049
sS'harold dimsdale'
p2050
g2
((lp2051
g4
atp2052
Rp2053
sS'ann r richards'
p2054
g2
((lp2055
g1014
ag88
ag1091
ag103
ag104
ag132
ag228
atp2056
Rp2057
sS'george gorchoff'
p2058
g2
((lp2059
g62
atp2060
Rp2061
sS'maurice howard'
p2062
g2
((lp2063
g312
atp2064
Rp2065
sS'lillian heron'
p2066
g2
((lp2067
g4
atp2068
Rp2069
sS'morton grant'
p2070
g2
((lp2071
g103
ag88
ag104
atp2072
Rp2073
sVjay rubin
p2074
g2
((lp2075
g94
atp2076
Rp2077
sS'carl williams'
p2078
g2
((lp2079
g629
atp2080
Rp2081
sS'sam wixman'
p2082
g2
((lp2083
g26
atp2084
Rp2085
sS'bernadette doyle'
p2086
g2
((lp2087
g81
atp2088
Rp2089
sS'mrs. fisher'
p2090
g2
((lp2091
g4
atp2092
Rp2093
sS'nina klowden'
p2094
g2
((lp2095
g383
ag347
ag176
atp2096
Rp2097
sS'celeste strack'
p2098
g2
((lp2099
g189
atp2100
Rp2101
sS'carl brodsky'
p2102
g2
((lp2103
g15
atp2104
Rp2105
sS'david hillierman'
p2106
g2
((lp2107
g312
atp2108
Rp2109
sS'jean richardson'
p2110
g2
((lp2111
g26
atp2112
Rp2113
sS'dorothy blumberg'
p2114
g2
((lp2115
g1044
ag35
atp2116
Rp2117
sS'joy williams'
p2118
g2
((lp2119
g189
atp2120
Rp2121
sS'charles leonard'
p2122
g2
((lp2123
g103
ag132
ag199
ag176
atp2124
Rp2125
sS'bill lawrence'
p2126
g2
((lp2127
g62
ag127
ag369
ag81
atp2128
Rp2129
sS'miriam chown'
p2130
g2
((lp2131
g81
atp2132
Rp2133
sS'what is smith'
p2134
g2
((lp2135
g94
aVjoseph springer
p2136
atp2137
Rp2138
sS'matt vidaver'
p2139
g2
((lp2140
g199
atp2141
Rp2142
sS'larne mccormiek'
p2143
g2
((lp2144
g26
atp2145
Rp2146
sS'thomas deaoon'
p2147
g2
((lp2148
g94
aVsulzberger junior high
p2149
atp2150
Rp2151
sS'norman perlman'
p2152
g2
((lp2153
g4
atp2154
Rp2155
sS'emmett teague'
p2156
g2
((lp2157
g81
atp2158
Rp2159
sS'doris roberson'
p2160
g2
((lp2161
g81
atp2162
Rp2163
sS'catherine larkin'
p2164
g2
((lp2165
g132
atp2166
Rp2167
sS'arthur barry'
p2168
g2
((lp2169
g127
ag94
atp2170
Rp2171
sS'beulah wales'
p2172
g2
((lp2173
g26
atp2174
Rp2175
sS'trudy peck'
p2176
g2
((lp2177
g86
atp2178
Rp2179
sS'sam horn'
p2180
g2
((lp2181
g103
ag4
ag132
ag89
atp2182
Rp2183
sS'william g soler'
p2184
g2
((lp2185
g94
atp2186
Rp2187
sS'john stanford'
p2188
g2
((lp2189
g103
ag228
atp2190
Rp2191
sS'john h lawson'
p2192
g2
((lp2193
g86
ag997
ag88
ag1014
ag103
ag227
ag228
ag89
atp2194
Rp2195
sVroy hudson
p2196
g2
((lp2197
g4
ag475
ag189
atp2198
Rp2199
sS'arnold dorenz'
p2200
g2
((lp2201
g127
ag94
atp2202
Rp2203
sS'shelly davis'
p2204
g2
((lp2205
g40
atp2206
Rp2207
sS'dorothy loeb'
p2208
g2
((lp2209
g127
ag1617
atp2210
Rp2211
sg404
g2
((lp2212
g26
ag404
atp2213
Rp2214
sS'bernie nidiss'
p2215
g2
((lp2216
g4
atp2217
Rp2218
sS'george v frederick'
p2219
g2
((lp2220
g81
ag205
atp2221
Rp2222
sS'barta numovna'
p2223
g2
((lp2224
g20
ag26
ag1137
atp2225
Rp2226
sS'henry peterson'
p2227
g2
((lp2228
g103
ag104
ag312
atp2229
Rp2230
sS'ralph cohen'
p2231
g2
((lp2232
g40
ag15
ag56
atp2233
Rp2234
sS'howard koch'
p2235
g2
((lp2236
g103
ag312
atp2237
Rp2238
sS'walter kirkon'
p2239
g2
((lp2240
g40
atp2241
Rp2242
sS'edward biberman'
p2243
g2
((lp2244
g86
ag103
ag115
ag312
atp2245
Rp2246
sS'john h reynolds'
p2247
g2
((lp2248
g68
ag45
ag47
atp2249
Rp2250
sS'albert r williams'
p2251
g2
((lp2252
g1251
atp2253
Rp2254
sS'holly perlman'
p2255
g2
((lp2256
g4
atp2257
Rp2258
sS'saul friedburg'
p2259
g2
((lp2260
g94
ag559
atp2261
Rp2262
sS'elizabeth guarnaccia'
p2263
g2
((lp2264
g824
atp2265
Rp2266
sS'art shields'
p2267
g2
((lp2268
Vdorrhy k. fttttj
p2269
atp2270
Rp2271
sS'maureen ryan'
p2272
g2
((lp2273
g26
atp2274
Rp2275
sS'john doberty'
p2276
g2
((lp2277
g4
atp2278
Rp2279
sS'libby minkus'
p2280
g2
((lp2281
g26
atp2282
Rp2283
sS'anna l strong'
p2284
g2
((lp2285
g1251
atp2286
Rp2287
sS'tiba willner'
p2288
g2
((lp2289
g132
ag199
atp2290
Rp2291
sS'jane wallace'
p2292
g2
((lp2293
S'jane wilson'
p2294
atp2295
Rp2296
sS'nemmy sparks'
p2297
g2
((lp2298
g559
ag88
ag228
atp2299
Rp2300
sS'al heltness'
p2301
g2
((lp2302
g26
atp2303
Rp2304
sS'joseph zadow'
p2305
g2
((lp2306
g26
atp2307
Rp2308
sS'evelyn fargo'
p2309
g2
((lp2310
g26
atp2311
Rp2312
sS'zema matlin'
p2313
g2
((lp2314
g26
atp2315
Rp2316
sS'guy endore'
p2317
g2
((lp2318
g103
ag88
ag104
ag132
atp2319
Rp2320
sS'selma lahne'
p2321
g2
((lp2322
g127
atp2323
Rp2324
sS'john dicho'
p2325
g2
((lp2326
g4
atp2327
Rp2328
sS'hymie aliiert'
p2329
g2
((lp2330
g4
atp2331
Rp2332
sS'fred rinaldo'
p2333
g2
((lp2334
g104
ag228
atp2335
Rp2336
sS'tom brown'
p2337
g2
((lp2338
g189
ag81
ag26
ag205
atp2339
Rp2340
sS'frank parsons'
p2341
g2
((lp2342
g103
ag81
ag26
ag154
ag205
atp2343
Rp2344
sS'eleanor smith'
p2345
g2
((lp2346
g40
ag154
atp2347
Rp2348
sS'evelyn weinstein'
p2349
g2
((lp2350
g15
ag2349
atp2351
Rp2352
sS'william bottcher'
p2353
g2
((lp2354
g15
ag56
atp2355
Rp2356
sS'adam lapin'
p2357
g2
((lp2358
g1251
ag40
atp2359
Rp2360
sS'elaine black'
p2361
g2
((lp2362
g189
atp2363
Rp2364
sS'helen wheeler'
p2365
g2
((lp2366
g189
ag2365
atp2367
Rp2368
sS'rose clinton'
p2369
g2
((lp2370
g35
atp2371
Rp2372
sS'ethel holmstock'
p2373
g2
((lp2374
g26
atp2375
Rp2376
sVpauline lauber finn
p2377
g2
((lp2378
g2377
atp2379
Rp2380
sg154
g2
((lp2381
g154
atp2382
Rp2383
sS'beatrice l cole'
p2384
g2
((lp2385
g228
atp2386
Rp2387
sS'sue rossen'
p2388
g2
((lp2389
g228
atp2390
Rp2391
sS'matthew crawford'
p2392
g2
((lp2393
g189
atp2394
Rp2395
sS'anna taft'
p2396
g2
((lp2397
g62
atp2398
Rp2399
sS'lem belton'
p2400
g2
((lp2401
g35
atp2402
Rp2403
sS'dorothy zadow'
p2404
g2
((lp2405
g26
atp2406
Rp2407
sS'robert neville'
p2408
g2
((lp2409
g81
ag205
ag369
atp2410
Rp2411
sS'lou solomon'
p2412
g2
((lp2413
g103
ag104
ag228
atp2414
Rp2415
sS'leo bigelman'
p2416
g2
((lp2417
g104
ag228
ag26
atp2418
Rp2419
sS'a englehart'
p2420
g2
((lp2421
g4
ag81
atp2422
Rp2423
sS'funn dorothy k'
p2424
g2
((lp2425
g94
atp2426
Rp2427
sS'paul schlipf'
p2428
g2
((lp2429
g40
atp2430
Rp2431
sS'robert treuhaft'
p2432
g2
((lp2433
g40
atp2434
Rp2435
sS'elizabeth. augustine'
p2436
g2
((lp2437
Velizabeth mcmuuen
p2438
atp2439
Rp2440
sS'michael dworkin'
p2441
g2
((lp2442
g15
ag56
atp2443
Rp2444
sS'adele margolis'
p2445
g2
((lp2446
g94
aVmrs. nathan mar
p2447
atp2448
Rp2449
sS'arthur newman'
p2450
g2
((lp2451
g81
ag35
atp2452
Rp2453
sS'bobbie karson'
p2454
g2
((lp2455
g4
atp2456
Rp2457
sS'fred biedenkapp'
p2458
g2
((lp2459
g475
atp2460
Rp2461
sS'in 1944 party'
p2462
g2
((lp2463
S'harry jackson'
p2464
aS'harrison george'
p2465
aS'al brown'
p2466
ag1278
ag2196
atp2467
Rp2468
sS'bob roberts'
p2469
g2
((lp2470
g103
atp2471
Rp2472
sVk. frmn
p2473
g2
((lp2474
g40
atp2475
Rp2476
sS'shirley kanter'
p2477
g2
((lp2478
g228
atp2479
Rp2480
sS'ella winter'
p2481
g2
((lp2482
g103
ag94
aVmrs. willard parker bereniece baldwin
p2483
ag475
atp2484
Rp2485
sg2294
g2
((lp2486
g20
ag26
atp2487
Rp2488
sS'ben barzman'
p2489
g2
((lp2490
g104
ag228
atp2491
Rp2492
sS'william albertson'
p2493
g2
((lp2494
g127
ag145
atp2495
Rp2496
sS'herbert naboisek'
p2497
g2
((lp2498
g205
atp2499
Rp2500
sS'waldo salt'
p2501
g2
((lp2502
g103
ag89
atp2503
Rp2504
sS'bert stone'
p2505
g2
((lp2506
g26
atp2507
Rp2508
sS'george shaffer'
p2509
g2
((lp2510
g26
atp2511
Rp2512
sS'madelaine ruthven'
p2513
g2
((lp2514
g86
ag103
ag104
ag228
atp2515
Rp2516
sS'morton nadler'
p2517
g2
((lp2518
g26
atp2519
Rp2520
sS'rather party'
p2521
g2
((lp2522
g62
atp2523
Rp2524
sS'james tourney'
p2525
g2
((lp2526
Vjim thorne
p2527
ag26
atp2528
Rp2529
sS'william michelson'
p2530
g2
((lp2531
g40
ag15
atp2532
Rp2533
sS'anne green'
p2534
g2
((lp2535
g88
atp2536
Rp2537
sg2438
g2
((lp2538
g81
aVmrs. arthur mayhew
p2539
atp2540
Rp2541
sS'louise thompson'
p2542
g2
((lp2543
g189
ag475
ag369
ag81
ag154
ag205
atp2544
Rp2545
sS'sophia salit'
p2546
g2
((lp2547
g4
atp2548
Rp2549
sS'harold schachter'
p2550
g2
((lp2551
Vcarlton col
p2552
ag94
ag40
atp2553
Rp2554
sS'jeannette finkelstein'
p2555
g2
((lp2556
g35
atp2557
Rp2558
sS'ernest boykin'
p2559
g2
((lp2560
g40
ag246
atp2561
Rp2562
sS'sarah simonsgard'
p2563
g2
((lp2564
g26
atp2565
Rp2566
sS'john little'
p2567
g2
((lp2568
g62
atp2569
Rp2570
sS'rose pearson'
p2571
g2
((lp2572
g86
atp2573
Rp2574
sS'burton freund'
p2575
g2
((lp2576
g4
atp2577
Rp2578
sS'leila thompson'
p2579
g2
((lp2580
g81
ag40
ag154
ag369
atp2581
Rp2582
sg2136
g2
((lp2583
g62
aS'joe saul'
p2584
atp2585
Rp2586
sS'benjamin d anton'
p2587
g2
((lp2588
g94
atp2589
Rp2590
sS'sandra young'
p2591
g2
((lp2592
g4
atp2593
Rp2594
sS'ruth s ryan'
p2595
g2
((lp2596
g132
ag26
atp2597
Rp2598
sS'everett weil'
p2599
g2
((lp2600
g228
atp2601
Rp2602
sS'harry shepro'
p2603
g2
((lp2604
g20
ag26
ag1137
atp2605
Rp2606
sS'val burton'
p2607
g2
((lp2608
g103
atp2609
Rp2610
sS'bruce anderson'
p2611
g2
((lp2612
g205
atp2613
Rp2614
sS'dave himinelstein'
p2615
g2
((lp2616
g189
atp2617
Rp2618
sS'israel halperin'
p2619
g2
((lp2620
g68
aVmr. robbins
p2621
ag608
ag45
ag1918
ag1919
atp2622
Rp2623
sS'albert blumberg'
p2624
g2
((lp2625
g35
atp2626
Rp2627
sS'emma stanley'
p2628
g2
((lp2629
g81
atp2630
Rp2631
sS'shimen raskin'
p2632
g2
((lp2633
g227
atp2634
Rp2635
sS'jean frederick'
p2636
g2
((lp2637
g205
aVmrs. george van fred
p2638
atp2639
Rp2640
sS'walter kolowski'
p2641
g2
((lp2642
g62
atp2643
Rp2644
sS'libby hilherman'
p2645
g2
((lp2646
Vmrs. dave hilber
p2647
atp2648
Rp2649
sS'helen pate'
p2650
g2
((lp2651
g4
atp2652
Rp2653
sS'elizabetb barlow'
p2654
g2
((lp2655
g81
ag154
aVmrs. edward bar
p2656
ag369
atp2657
Rp2658
sS'betty laros'
p2659
g2
((lp2660
g15
ag56
ag145
atp2661
Rp2662
sS'morris salz'
p2663
g2
((lp2664
Vdorothy k. fram
p2665
ag2473
atp2666
Rp2667
sS'harriet bouslog'
p2668
g2
((lp2669
g35
atp2670
Rp2671
sS'the committee springer'
p2672
g2
((lp2673
Vmax klansky
p2674
atp2675
Rp2676
sS'herbert feay'
p2677
g2
((lp2678
g127
ag145
atp2679
Rp2680
sg2584
g2
((lp2681
g132
ag2136
atp2682
Rp2683
sS'evelyn keller'
p2684
g2
((lp2685
g26
atp2686
Rp2687
sS'leo rossman'
p2688
g2
((lp2689
g246
atp2690
Rp2691
sVmr. maurice murphy
p2692
g2
((lp2693
g89
atp2694
Rp2695
sS'bernhard stern'
p2696
g2
((lp2697
g608
atp2698
Rp2699
sS'russell a nixon'
p2700
g2
((lp2701
g94
ag35
atp2702
Rp2703
sS'johnny cole'
p2704
g2
((lp2705
g88
atp2706
Rp2707
sS'marian redner'
p2708
g2
((lp2709
g205
atp2710
Rp2711
sS'alex treskiu'
p2712
g2
((lp2713
g81
atp2714
Rp2715
sS'charles pfeiffer'
p2716
g2
((lp2717
g189
atp2718
Rp2719
sS'andreas dinam'
p2720
g2
((lp2721
g228
atp2722
Rp2723
sS'sue cohen'
p2724
g2
((lp2725
g26
atp2726
Rp2727
sS'clara davis'
p2728
g2
((lp2729
g56
atp2730
Rp2731
sS'russell w bnrnstein'
p2732
g2
((lp2733
g132
atp2734
Rp2735
sS'margaret maltz'
p2736
g2
((lp2737
g132
atp2738
Rp2739
sS'evelyn howard'
p2740
g2
((lp2741
g94
atp2742
Rp2743
sS'hjalmar peterson'
p2744
g2
((lp2745
g312
atp2746
Rp2747
sS'ora kelly'
p2748
g2
((lp2749
g40
atp2750
Rp2751
sS'donald murray'
p2752
g2
((lp2753
g26
atp2754
Rp2755
sS'john matsuto'
p2756
g2
((lp2757
g26
atp2758
Rp2759
sS'leslie edgley'
p2760
g2
((lp2761
g103
ag228
atp2762
Rp2763
sS'maurice braverman'
p2764
g2
((lp2765
g35
atp2766
Rp2767
sS'george bratoff'
p2768
g2
((lp2769
g81
atp2770
Rp2771
sS'leon shapiro'
p2772
g2
((lp2773
g15
ag56
atp2774
Rp2775
sS'martin chancey'
p2776
g2
((lp2777
g35
atp2778
Rp2779
sS'helen mallof'
p2780
g2
((lp2781
g40
ag26
atp2782
Rp2783
sS'honor carey'
p2784
g2
((lp2785
g20
ag26
ag1137
atp2786
Rp2787
sS'rosalind freud'
p2788
g2
((lp2789
g4
atp2790
Rp2791
sS'louise janis'
p2792
g2
((lp2793
g228
atp2794
Rp2795
sS'alexander kolker'
p2796
g2
((lp2797
g88
aVmrs. lou lou rosser
p2798
ag199
ag228
ag15
ag56
atp2799
Rp2800
sS'nathan jacobson'
p2801
g2
((lp2802
g629
atp2803
Rp2804
sS'robert bush'
p2805
g2
((lp2806
g2805
ag228
atp2807
Rp2808
sS'stanley roberts'
p2809
g2
((lp2810
g104
aS'sarah oilman'
p2811
ag1687
atp2812
Rp2813
sS'dorothy pezman'
p2814
g2
((lp2815
g26
atp2816
Rp2817
sS'jeff kibre'
p2818
g2
((lp2819
g312
ag89
atp2820
Rp2821
sVmrs. gus browne edith macia
p2822
g2
((lp2823
g4
atp2824
Rp2825
sS'tanya tuttle'
p2826
g2
((lp2827
g228
atp2828
Rp2829
sS'charlie white'
p2830
g2
((lp2831
g205
atp2832
Rp2833
sS'mrs. pieper'
p2834
g2
((lp2835
g40
atp2836
Rp2837
sS'ozzo marrow'
p2838
g2
((lp2839
g154
atp2840
Rp2841
sS'hugh bryson'
p2842
g2
((lp2843
g189
ag246
atp2844
Rp2845
sS'oleta o yates'
p2846
g2
((lp2847
Voleta o'connor
p2848
ag189
atp2849
Rp2850
sS'thelma dale'
p2851
g2
((lp2852
g35
atp2853
Rp2854
sS'frieda trachgin'
p2855
g2
((lp2856
g4
atp2857
Rp2858
sS'anna shepro'
p2859
g2
((lp2860
g20
ag1137
atp2861
Rp2862
sg1096
g2
((lp2863
g62
atp2864
Rp2865
sS'martha stone'
p2866
g2
((lp2867
g189
atp2868
Rp2869
sS'inirs. alvah bessie'
p2870
g2
((lp2871
g103
ag104
ag88
atp2872
Rp2873
sS'john hubley'
p2874
g2
((lp2875
g312
atp2876
Rp2877
sS'ruth weber'
p2878
g2
((lp2879
g88
atp2880
Rp2881
sS'elsie monjar'
p2882
g2
((lp2883
g189
aVmiss monjar
p2884
atp2885
Rp2886
sS'arthur birnkarnt'
p2887
g2
((lp2888
g103
ag228
atp2889
Rp2890
sS'arthur osman'
p2891
g2
((lp2892
g475
ag94
ag2473
aVoifioe workei
p2893
atp2894
Rp2895
sS'paul perlin'
p2896
g2
((lp2897
g312
atp2898
Rp2899
sS'louis goldblatt'
p2900
g2
((lp2901
g189
aVlewis miller
p2902
atp2903
Rp2904
sS'maurice perlman'
p2905
g2
((lp2906
g4
atp2907
Rp2908
sS'richard lynden'
p2909
g2
((lp2910
g189
atp2911
Rp2912
sS'marjorie macgregor'
p2913
g2
((lp2914
g20
ag228
atp2915
Rp2916
sS'glenda sullivan'
p2917
g2
((lp2918
g104
atp2919
Rp2920
sS'lou. schneiderman'
p2921
g2
((lp2922
g92
atp2923
Rp2924
sS'sadie dawson'
p2925
g2
((lp2926
g4
atp2927
Rp2928
sS'lester fuller'
p2929
g2
((lp2930
g104
ag88
atp2931
Rp2932
sS'george edwards'
p2933
g2
((lp2934
g81
ag40
ag369
atp2935
Rp2936
sS'bob raven'
p2937
g2
((lp2938
g62
ag4
atp2939
Rp2940
sS'walter laniliert'
p2941
g2
((lp2942
g103
ag26
ag199
atp2943
Rp2944
sS'meridel leseuer'
p2945
g2
((lp2946
g40
atp2947
Rp2948
sVmr. silver
p2949
g2
((lp2950
g94
atp2951
Rp2952
sS'marge price'
p2953
g2
((lp2954
g369
atp2955
Rp2956
sS'louise gilliam'
p2957
g2
((lp2958
g369
atp2959
Rp2960
sVlouise losey
p2961
g2
((lp2962
g2961
ag228
aVv. j.
p2963
atp2964
Rp2965
sS'jack burris'
p2966
g2
((lp2967
g189
atp2968
Rp2969
sS'phoebe brand'
p2970
g2
((lp2971
g94
ag227
atp2972
Rp2973
sS'flora webster'
p2974
g2
((lp2975
g1044
atp2976
Rp2977
sS'jay riibiu'
p2978
g2
((lp2979
g127
ag2074
ag145
atp2980
Rp2981
sS'len decaux'
p2982
g2
((lp2983
g35
atp2984
Rp2985
sVherbert robbins
p2986
g2
((lp2987
g404
atp2988
Rp2989
sS'otis a hood'
p2990
g2
((lp2991
g886
atp2992
Rp2993
sS'edith sharpe'
p2994
g2
((lp2995
g369
ag40
ag154
atp2996
Rp2997
sS'rose hobart'
p2998
g2
((lp2999
g227
atp3000
Rp3001
sS'max weitzman'
p3002
g2
((lp3003
g886
atp3004
Rp3005
sS'decca treuhaft'
p3006
g2
((lp3007
g81
ag1626
atp3008
Rp3009
sS'louise moss'
p3010
g2
((lp3011
g103
ag4
ag2074
atp3012
Rp3013
sS'marie phillips'
p3014
g2
((lp3015
g81
atp3016
Rp3017
sS'stanley hancock'
p3018
g2
((lp3019
g25
atp3020
Rp3021
sS'lettie stever'
p3022
g2
((lp3023
g404
atp3024
Rp3025
sS'harry bridges'
p3026
g2
((lp3027
g246
atp3028
Rp3029
sS'loretta starvus'
p3030
g2
((lp3031
g189
ag81
ag559
ag369
atp3032
Rp3033
sS'frank oppenheimer'
p3034
g2
((lp3035
g26
atp3036
Rp3037
sS'francis e faragoh'
p3038
g2
((lp3039
Vreis rosenberg
p3040
aVedward dmytryk
p3041
atp3042
Rp3043
sS'seymour bennett'
p3044
g2
((lp3045
g103
atp3046
Rp3047
sS'marie. rinaldo'
p3048
g2
((lp3049
g228
ag1415
atp3050
Rp3051
sS'ann nechemias'
p3052
g2
((lp3053
g35
atp3054
Rp3055
sS'jean mayer'
p3056
g2
((lp3057
g26
atp3058
Rp3059
sS'donald hatcliigan'
p3060
g2
((lp3061
g127
ag15
ag145
atp3062
Rp3063
sS'theodore s. polumbaum'
p3064
g2
((lp3065
g94
atp3066
Rp3067
sS'clara rairland'
p3068
g2
((lp3069
g205
atp3070
Rp3071
sS'michael wilson'
p3072
g2
((lp3073
g103
ag132
atp3074
Rp3075
sS'rosalind lindesmith'
p3076
g2
((lp3077
g81
ag369
atp3078
Rp3079
sS'louis green'
p3080
g2
((lp3081
g40
atp3082
Rp3083
sS'paul chown'
p3084
g2
((lp3085
g81
ag40
atp3086
Rp3087
sS'clarice chapman'
p3088
g2
((lp3089
g88
atp3090
Rp3091
sS'mort newman'
p3092
g2
((lp3093
g189
ag94
atp3094
Rp3095
sS'fanny lehman'
p3096
g2
((lp3097
g40
ag369
atp3098
Rp3099
sS'betty. martin'
p3100
g2
((lp3101
g26
atp3102
Rp3103
sS'sol kaplan'
p3104
g2
((lp3105
g241
ag246
atp3106
Rp3107
sS'henry beitscher'
p3108
g2
((lp3109
g35
atp3110
Rp3111
sS'shirley fields'
p3112
g2
((lp3113
g127
ag3112
atp3114
Rp3115
sS'pauline hopkins'
p3116
g2
((lp3117
g383
ag199
ag176
atp3118
Rp3119
sS'carl brandt'
p3120
g2
((lp3121
g189
ag26
atp3122
Rp3123
sS'eunice mindlin'
p3124
g2
((lp3125
g103
atp3126
Rp3127
sVamalia pesko crago
p3128
g2
((lp3129
g1714
atp3130
Rp3131
sS'harry rich'
p3132
g2
((lp3133
g189
ag127
ag145
aS'al lannon'
p3134
atp3135
Rp3136
sS'stanley praeger'
p3137
g2
((lp3138
g1014
ag228
atp3139
Rp3140
sS'dick criley'
p3141
g2
((lp3142
g189
atp3143
Rp3144
sS'allen johnson'
p3145
g2
((lp3146
g40
atp3147
Rp3148
sS'harry f. ward'
p3149
g2
((lp3150
g475
ag477
atp3151
Rp3152
sS'charlotte kyer'
p3153
g2
((lp3154
g81
atp3155
Rp3156
sVelizabeth mc
p3157
g2
((lp3158
S'elizabeth. mayhew'
p3159
atp3160
Rp3161
sS'shirley stone'
p3162
g2
((lp3163
g4
ag94
aVshirley ellis
p3164
atp3165
Rp3166
sg167
g2
((lp3167
g167
ag56
atp3168
Rp3169
sg1461
g2
((lp3170
Vmrs. newell rey
p3171
ag26
atp3172
Rp3173
sS'dean hood'
p3174
g2
((lp3175
g189
atp3176
Rp3177
sS'sonya solotoy'
p3178
g2
((lp3179
g26
atp3180
Rp3181
sS'dorothy olson'
p3182
g2
((lp3183
g4
ag2963
ag199
atp3184
Rp3185
sS'beckie wolstenholme'
p3186
g2
((lp3187
g40
aVmrs. art wol
p3188
atp3189
Rp3190
sS'frank moskin'
p3191
g2
((lp3192
g4
atp3193
Rp3194
sS'jack lazar'
p3195
g2
((lp3196
g4
ag127
atp3197
Rp3198
sS'paul trabusis'
p3199
g2
((lp3200
g103
atp3201
Rp3202
sS'bea baron'
p3203
g2
((lp3204
g26
atp3205
Rp3206
sS'harry fruit'
p3207
g2
((lp3208
g94
atp3209
Rp3210
sS'george mclean'
p3211
g2
((lp3212
g26
atp3213
Rp3214
sS'george chakin'
p3215
g2
((lp3216
g62
atp3217
Rp3218
sS'julian gordon'
p3219
g2
((lp3220
g127
ag145
atp3221
Rp3222
sS'don gordon'
p3223
g2
((lp3224
g26
ag312
atp3225
Rp3226
sS'herman mazer'
p3227
g2
((lp3228
g4
atp3229
Rp3230
sS'gertrude evans'
p3231
g2
((lp3232
g35
atp3233
Rp3234
sS'herman clott'
p3235
g2
((lp3236
g35
atp3237
Rp3238
sg2963
g2
((lp3239
g45
ag46
ag26
ag15
ag56
atp3240
Rp3241
sS'bea burke'
p3242
g2
((lp3243
g26
atp3244
Rp3245
sS'evelyn hanson'
p3246
g2
((lp3247
g40
atp3248
Rp3249
sS'ruby heide'
p3250
g2
((lp3251
g81
ag40
atp3252
Rp3253
sg490
g2
((lp3254
g228
atp3255
Rp3256
sS'paul rosenfeld'
p3257
g2
((lp3258
g228
atp3259
Rp3260
sS'libby corngold'
p3261
g2
((lp3262
g189
atp3263
Rp3264
sS'josef michel'
p3265
g2
((lp3266
g104
atp3267
Rp3268
sS'freddie walker'
p3269
g2
((lp3270
g154
atp3271
Rp3272
sS'mary c grier'
p3273
g2
((lp3274
Vgeological grier
p3275
atp3276
Rp3277
sS'harry judis'
p3278
g2
((lp3279
g4
ag3278
atp3280
Rp3281
sS'janet scott'
p3282
g2
((lp3283
g26
ag15
ag56
atp3284
Rp3285
sS'bill clifford'
p3286
g2
((lp3287
g81
ag369
atp3288
Rp3289
sS'john smith'
p3290
g2
((lp3291
g40
atp3292
Rp3293
sS'frieda schweukmyer'
p3294
g2
((lp3295
g127
ag145
atp3296
Rp3297
sS'ray halpern'
p3298
g2
((lp3299
g154
atp3300
Rp3301
sS'richard schlatter'
p3302
g2
((lp3303
g94
atp3304
Rp3305
sS'martin berkeley'
p3306
g2
((lp3307
g94
atp3308
Rp3309
sS'dalton trmiibo'
p3310
g2
((lp3311
g103
ag104
ag997
ag88
atp3312
Rp3313
sS'iva anthony'
p3314
g2
((lp3315
g4
atp3316
Rp3317
sg2464
g2
((lp3318
g189
atp3319
Rp3320
sS'sarah bognoff'
p3321
g2
((lp3322
g25
atp3323
Rp3324
sS'fred williams'
p3325
g2
((lp3326
g154
atp3327
Rp3328
sS'abraham maymadus'
p3329
g2
((lp3330
g26
atp3331
Rp3332
sS'janet mcharg'
p3333
g2
((lp3334
g81
atp3335
Rp3336
sS'harriet belinky'
p3337
g2
((lp3338
g15
ag56
atp3339
Rp3340
sS'cecil beard'
p3341
g2
((lp3342
g312
atp3343
Rp3344
sS'hilton wolf'
p3345
g2
((lp3346
g4
atp3347
Rp3348
sS'janet stevenson'
p3349
g2
((lp3350
Vmrs. philip steven
p3351
ag228
atp3352
Rp3353
sS'alberto moreau'
p3354
g2
((lp3355
g35
atp3356
Rp3357
sS'sidney claibourne'
p3358
g2
((lp3359
g40
atp3360
Rp3361
sS'jean rand'
p3362
g2
((lp3363
g189
ag3362
atp3364
Rp3365
sS'edward barlow'
p3366
g2
((lp3367
g81
ag154
atp3368
Rp3369
sS'henry shire'
p3370
g2
((lp3371
g26
ag35
atp3372
Rp3373
sS'sanford bernstein'
p3374
g2
((lp3375
g4
atp3376
Rp3377
sS'rudy baker'
p3378
g2
((lp3379
g685
atp3380
Rp3381
sS'miriam holtz'
p3382
g2
((lp3383
g26
atp3384
Rp3385
sS'walter stack'
p3386
g2
((lp3387
g189
ag246
atp3388
Rp3389
sS'dan james'
p3390
g2
((lp3391
g103
ag1014
ag228
atp3392
Rp3393
sg2465
g2
((lp3394
g26
atp3395
Rp3396
sS'frank tarloff'
p3397
g2
((lp3398
g103
ag228
atp3399
Rp3400
sS'leo gerstinheim'
p3401
g2
((lp3402
g127
ag94
atp3403
Rp3404
sS'ruth burrows'
p3405
g2
((lp3406
g228
atp3407
Rp3408
sS'edith bomser'
p3409
g2
((lp3410
g4
atp3411
Rp3412
sS'ruth standish'
p3413
g2
((lp3414
g40
atp3415
Rp3416
sS'molly young'
p3417
g2
((lp3418
g199
atp3419
Rp3420
sS'charles blacklock'
p3421
g2
((lp3422
g40
atp3423
Rp3424
sS'bill norman'
p3425
g2
((lp3426
g4
ag62
ag364
aVsteve miller
p3427
ag475
atp3428
Rp3429
sS'robert campbell'
p3430
g2
((lp3431
g35
atp3432
Rp3433
sS'luther morris'
p3434
g2
((lp3435
g40
ag369
atp3436
Rp3437
sS'molly thorner'
p3438
g2
((lp3439
g369
atp3440
Rp3441
sS'lloyd gough'
p3442
g2
((lp3443
g404
ag329
atp3444
Rp3445
sS'william creque'
p3446
g2
((lp3447
g81
atp3448
Rp3449
sS'lillian jones'
p3450
g2
((lp3451
g26
atp3452
Rp3453
sS'paul mcvey'
p3454
g2
((lp3455
g3454
ag383
ag347
ag176
atp3456
Rp3457
sS'florence hutchinson'
p3458
g2
((lp3459
g81
atp3460
Rp3461
sS'eva lapin'
p3462
g2
((lp3463
g40
atp3464
Rp3465
sS'kathleen griffitli'
p3466
g2
((lp3467
g3466
atp3468
Rp3469
sS'robert black'
p3470
g2
((lp3471
g369
ag40
ag154
atp3472
Rp3473
sS'dora garber'
p3474
g2
((lp3475
g4
atp3476
Rp3477
sS'revels. cayton'
p3478
g2
((lp3479
g189
ag35
atp3480
Rp3481
sS'marcus singer'
p3482
g2
((lp3483
g46
atp3484
Rp3485
sS'amalia p crago'
p3486
g2
((lp3487
g127
ag15
ag56
ag145
atp3488
Rp3489
sS'hugo butler'
p3490
g2
((lp3491
g103
ag104
ag948
atp3492
Rp3493
sS'robert dwinnell'
p3494
g2
((lp3495
g40
atp3496
Rp3497
sS'abraham mlnkus'
p3498
g2
((lp3499
g20
ag26
ag1137
atp3500
Rp3501
sS'sidney bloomfield'
p3502
g2
((lp3503
g68
ag559
atp3504
Rp3505
sS'mary nolan'
p3506
g2
((lp3507
g1251
ag115
ag312
atp3508
Rp3509
sS'hoyt haddock'
p3510
g2
((lp3511
g35
atp3512
Rp3513
sS'eugene parker'
p3514
g2
((lp3515
g40
atp3516
Rp3517
sS'nori lafferty'
p3518
g2
((lp3519
g81
atp3520
Rp3521
sVmarguerite roberts
p3522
g2
((lp3523
g104
ag103
ag88
ag20
ag2963
ag228
atp3524
Rp3525
sS'anne witkowski'
p3526
g2
((lp3527
g4
atp3528
Rp3529
sS'flo cohen'
p3530
g2
((lp3531
g15
ag56
atp3532
Rp3533
sS'george morris'
p3534
g2
((lp3535
g189
atp3536
Rp3537
sS'dorothy anhattzer'
p3538
g2
((lp3539
g4
atp3540
Rp3541
sg3134
g2
((lp3542
g35
atp3543
Rp3544
sS'jane march'
p3545
g2
((lp3546
g26
atp3547
Rp3548
sS'george tyne'
p3549
g2
((lp3550
g227
atp3551
Rp3552
sS'sam kalish'
p3553
g2
((lp3554
g20
ag26
ag1137
atp3555
Rp3556
sS'lena wiena'
p3557
g2
((lp3558
g4
atp3559
Rp3560
sS'ben maddow'
p3561
g2
((lp3562
g228
atp3563
Rp3564
sS'carl hacker'
p3565
g2
((lp3566
g127
ag145
atp3567
Rp3568
sS'doris fogarty'
p3569
g2
((lp3570
g81
atp3571
Rp3572
sS'jane callender'
p3573
g2
((lp3574
g4
atp3575
Rp3576
sS'allan bomser'
p3577
g2
((lp3578
g4
atp3579
Rp3580
sS'byron t darling'
p3581
g2
((lp3582
g2805
aVedward gewirts
p3583
ag1410
atp3584
Rp3585
sS'adrian scott'
p3586
g2
((lp3587
g103
ag104
atp3588
Rp3589
sS'bill danzig'
p3590
g2
((lp3591
g40
atp3592
Rp3593
sS'leo m. hurvich'
p3594
g2
((lp3595
g94
ag81
atp3596
Rp3597
sS'reuben ship'
p3598
g2
((lp3599
g228
ag176
atp3600
Rp3601
sS'jack s. zucker'
p3602
g2
((lp3603
g35
atp3604
Rp3605
sS'peter chaunt'
p3606
g2
((lp3607
g475
ag81
atp3608
Rp3609
sS'morris carnovsky'
p3610
g2
((lp3611
g227
ag329
atp3612
Rp3613
sg629
g2
((lp3614
g629
atp3615
Rp3616
sS'arthur strawn'
p3617
g2
((lp3618
g88
atp3619
Rp3620
sS'john rapf'
p3621
g2
((lp3622
g383
ag88
ag228
atp3623
Rp3624
sS'hulda j flynn'
p3625
g2
((lp3626
g68
atp3627
Rp3628
sS'pauline vinson'
p3629
g2
((lp3630
Vmrs. owen vinson
p3631
ag3116
atp3632
Rp3633
sS'jack fox'
p3634
g2
((lp3635
g189
ag26
aVmrs. fred franchi
p3636
ag145
atp3637
Rp3638
sS'earl phillips'
p3639
g2
((lp3640
g81
ag40
atp3641
Rp3642
sS'archie brown'
p3643
g2
((lp3644
g62
ag189
ag40
ag629
atp3645
Rp3646
sS'elizabeth faragoh'
p3647
g2
((lp3648
g976
ag228
atp3649
Rp3650
sg241
g2
((lp3651
g189
ag94
aVthomas delaney
p3652
ag241
atp3653
Rp3654
sS'edna r coleman'
p3655
g2
((lp3656
g35
ag1687
atp3657
Rp3658
sS'virginia mullen'
p3659
g2
((lp3660
g94
atp3661
Rp3662
sS'jacob mindel'
p3663
g2
((lp3664
g189
atp3665
Rp3666
sS'marcella avnet'
p3667
g2
((lp3668
g35
atp3669
Rp3670
sg246
g2
((lp3671
g127
ag145
atp3672
Rp3673
sS'fred putnam'
p3674
g2
((lp3675
g4
ag2963
ag26
atp3676
Rp3677
sS'anna mcintosh'
p3678
g2
((lp3679
g40
aVben davis club
p3680
atp3681
Rp3682
sS'margaret ginsberg'
p3683
g2
((lp3684
g2963
ag26
atp3685
Rp3686
sS'john looschen'
p3687
g2
((lp3688
g94
atp3689
Rp3690
sS'sylvia elfenbein'
p3691
g2
((lp3692
g35
atp3693
Rp3694
sS'george stathis'
p3695
g2
((lp3696
g127
ag15
atp3697
Rp3698
sS'harry haywood'
p3699
g2
((lp3700
g189
atp3701
Rp3702
sS'rose bush'
p3703
g2
((lp3704
g4
ag26
ag1552
atp3705
Rp3706
sS'anita boyagian'
p3707
g2
((lp3708
g4
atp3709
Rp3710
sg1137
g2
((lp3711
g26
ag1137
atp3712
Rp3713
sS'mary bindley'
p3714
g2
((lp3715
g4
atp3716
Rp3717
sS'kicliard goodwin'
p3718
g2
((lp3719
g68
ag1919
ag94
atp3720
Rp3721
sS'horace pratt'
p3722
g2
((lp3723
g4
atp3724
Rp3725
sg2466
g2
((lp3726
g4
atp3727
Rp3728
sS'jane d kelly'
p3729
g2
((lp3730
g4
atp3731
Rp3732
sS'josephine w eidenoff'
p3733
g2
((lp3734
g81
atp3735
Rp3736
sS'carroll barnes'
p3737
g2
((lp3738
g81
atp3739
Rp3740
sS'william schneiderman'
p3741
g2
((lp3742
g103
ag189
ag40
ag26
atp3743
Rp3744
sS'nathan rosen'
p3745
g2
((lp3746
g46
atp3747
Rp3748
sS'cleophas brown'
p3749
g2
((lp3750
g40
ag369
atp3751
Rp3752
sS'william t. parry'
p3753
g2
((lp3754
g68
atp3755
Rp3756
sS'esther goodman'
p3757
g2
((lp3758
g189
atp3759
Rp3760
sg891
g2
((lp3761
g81
atp3762
Rp3763
sS'david rappaport'
p3764
g2
((lp3765
g127
ag15
ag3764
ag56
ag145
atp3766
Rp3767
sS'jerome chodorov'
p3768
g2
((lp3769
g404
atp3770
Rp3771
sS'edward strong'
p3772
g2
((lp3773
g35
atp3774
Rp3775
sS'sara kusiiitz'
p3776
g2
((lp3777
g4
ag26
atp3778
Rp3779
sVk. funn
p3780
g2
((lp3781
g103
ag89
atp3782
Rp3783
sS'ann revere'
p3784
g2
((lp3785
g227
ag329
atp3786
Rp3787
sS'morris keller'
p3788
g2
((lp3789
g81
atp3790
Rp3791
sS'ivirs. sarah kaufman'
p3792
g2
((lp3793
g15
ag56
atp3794
Rp3795
sS'madeline lee'
p3796
g2
((lp3797
g404
atp3798
Rp3799
sS'ohio. cincinnati'
p3800
g2
((lp3801
g127
ag145
ag94
atp3802
Rp3803
sS'martha campion'
p3804
g2
((lp3805
g475
ag3804
atp3806
Rp3807
sS'dave teitelbaum'
p3808
g2
((lp3809
g210
ag246
atp3810
Rp3811
sS'herschel alexander'
p3812
g2
((lp3813
g189
ag40
ag199
ag369
ag176
ag347
atp3814
Rp3815
sS'arthur anhattzer'
p3816
g2
((lp3817
g4
atp3818
Rp3819
sVmr. lazarus
p3820
g2
((lp3821
g94
atp3822
Rp3823
sS'william taylor'
p3824
g2
((lp3825
g35
atp3826
Rp3827
sS'ian hunter'
p3828
g2
((lp3829
g104
ag228
atp3830
Rp3831
sS'gus browne'
p3832
g2
((lp3833
g40
atp3834
Rp3835
sS'carl winter'
p3836
g2
((lp3837
g26
ag228
atp3838
Rp3839
sg45
g2
((lp3840
g81
atp3841
Rp3842
sS'jack robinson'
p3843
g2
((lp3844
g383
atp3845
Rp3846
sS'bert witkowski'
p3847
g2
((lp3848
g4
atp3849
Rp3850
sS'ben bengal'
p3851
g2
((lp3852
g228
atp3853
Rp3854
sS'ann r rieliards'
p3855
g2
((lp3856
g35
atp3857
Rp3858
sS'gertrude lane'
p3859
g2
((lp3860
g145
atp3861
Rp3862
sS'carl hanson'
p3863
g2
((lp3864
g369
ag40
ag26
ag154
atp3865
Rp3866
sS'george lafortune'
p3867
g2
((lp3868
g127
ag145
atp3869
Rp3870
sS'sid partridge'
p3871
g2
((lp3872
g40
atp3873
Rp3874
sS'donald henderson'
p3875
g2
((lp3876
g475
atp3877
Rp3878
sS'willie schulz'
p3879
g2
((lp3880
g127
ag145
atp3881
Rp3882
sS'howard dimsdale'
p3883
g2
((lp3884
g103
ag199
atp3885
Rp3886
sS'cyril endfield'
p3887
g2
((lp3888
g103
atp3889
Rp3890
sS'pauline l finn'
p3891
g2
((lp3892
g228
ag104
aS'pauline. lauber'
p3893
ag176
atp3894
Rp3895
sS'opal terry'
p3896
g2
((lp3897
g40
atp3898
Rp3899
sS'marie calloway'
p3900
g2
((lp3901
g154
atp3902
Rp3903
sS'phil bard'
p3904
g2
((lp3905
g62
atp3906
Rp3907
sS'gerry schlein'
p3908
g2
((lp3909
g227
atp3910
Rp3911
sS'dodd bella v'
p3912
g2
((lp3913
g35
atp3914
Rp3915
sVdavid amarigio
p3916
g2
((lp3917
g62
aS'david leeds'
p3918
atp3919
Rp3920
sS'william wolff'
p3921
g2
((lp3922
g176
atp3923
Rp3924
sS'sara geyer'
p3925
g2
((lp3926
g4
atp3927
Rp3928
sS'robert sloan'
p3929
g2
((lp3930
g86
atp3931
Rp3932
sS'lucy warren'
p3933
g2
((lp3934
g4
ag228
atp3935
Rp3936
sS'ethel claibourne'
p3937
g2
((lp3938
Vmrs. sidney clai
p3939
ag40
atp3940
Rp3941
sS'harold oakerly'
p3942
g2
((lp3943
g246
atp3944
Rp3945
sS'matilda lewis'
p3946
g2
((lp3947
g20
ag40
ag26
ag1137
atp3948
Rp3949
sS'david jenkins'
p3950
g2
((lp3951
g246
ag629
atp3952
Rp3953
sS'rose dreyfus'
p3954
g2
((lp3955
g4
atp3956
Rp3957
sS'harry g itskowitz'
p3958
g2
((lp3959
g213
atp3960
Rp3961
sS'jean lees'
p3962
g2
((lp3963
g81
ag132
ag205
atp3964
Rp3965
sS'milton henry'
p3966
g2
((lp3967
g26
atp3968
Rp3969
sS'wilma shore'
p3970
g2
((lp3971
g103
atp3972
Rp3973
sg2811
g2
((lp3974
Vgilman rosenblatt
p3975
ag35
atp3976
Rp3977
sS'jack chassen'
p3978
g2
((lp3979
g4
atp3980
Rp3981
sS'morris karson'
p3982
g2
((lp3983
g4
atp3984
Rp3985
sVmary charles d. blodgett
p3986
g2
((lp3987
g228
atp3988
Rp3989
sS'albert legard'
p3990
g2
((lp3991
g40
atp3992
Rp3993
sS'nell higman'
p3994
g2
((lp3995
g189
atp3996
Rp3997
sS'michael frank'
p3998
g2
((lp3999
g4
atp4000
Rp4001
sS'georgia burns'
p4002
g2
((lp4003
g86
atp4004
Rp4005
sS'morris zuckman'
p4006
g2
((lp4007
g15
ag56
atp4008
Rp4009
sS'harry gilder'
p4010
g2
((lp4011
g4
atp4012
Rp4013
sS'carl foreman'
p4014
g2
((lp4015
g103
ag132
ag948
atp4016
Rp4017
sS'norman canright'
p4018
g2
((lp4019
g40
atp4020
Rp4021
sS'cookie wexley'
p4022
g2
((lp4023
g228
atp4024
Rp4025
sS'victor killian'
p4026
g2
((lp4027
g227
ag329
atp4028
Rp4029
sS'charles stone'
p4030
g2
((lp4031
g4
atp4032
Rp4033
sS'samuel stember'
p4034
g2
((lp4035
g62
ag3498
atp4036
Rp4037
sS'clara walden'
p4038
g2
((lp4039
g228
atp4040
Rp4041
sS'mildred grossman'
p4042
g2
((lp4043
g35
atp4044
Rp4045
sS'catherine vandercar'
p4046
g2
((lp4047
g132
atp4048
Rp4049
sS'laurie blankfort'
p4050
g2
((lp4051
g103
atp4052
Rp4053
sg3918
g2
((lp4054
g3916
atp4055
Rp4056
sS'gordon williams'
p4057
g2
((lp4058
g81
ag40
atp4059
Rp4060
sS'nina ingham'
p4061
g2
((lp4062
g26
atp4063
Rp4064
sS'ida pratt'
p4065
g2
((lp4066
g4
atp4067
Rp4068
sS'margaret e. forsyth'
p4069
g2
((lp4070
g475
atp4071
Rp4072
sS'louise. todd'
p4073
g2
((lp4074
g81
ag40
ag26
atp4075
Rp4076
sS'john bright'
p4077
g2
((lp4078
g86
ag104
ag145
ag127
ag103
ag4077
ag15
ag89
ag56
atp4079
Rp4080
sS'robert richards'
p4081
g2
((lp4082
g228
atp4083
Rp4084
sS'rena dodd'
p4085
g2
((lp4086
g15
ag56
ag145
atp4087
Rp4088
sS'maurice clark'
p4089
g2
((lp4090
g103
ag1014
ag104
ag948
atp4091
Rp4092
sS'elliott sullivan'
p4093
g2
((lp4094
g227
ag404
atp4095
Rp4096
sS'kenneth arnold'
p4097
g2
((lp4098
g46
atp4099
Rp4100
sS'helen samuels'
p4101
g2
((lp4102
g4
atp4103
Rp4104
sg210
g2
((lp4105
Vwilliam ted isiartin
p4106
ag176
ag81
ag46
ag154
ag427
ag189
ag1165
ag40
ag26
ag369
ag672
ag1025
ag3064
atp4107
Rp4108
sVmargaret und
p4109
g2
((lp4110
g1251
atp4111
Rp4112
s.