(dp0
Vjoe charlotte darling adams
p1
(lp2
Vedith macia
p3
asS'william e. oliver'
p4
(lp5
Valice bennett
p6
aVurcel daniel
p7
asS'sidney freeman'
p8
(lp9
Vleroy herndon
p10
asS'paul cline'
p11
(lp12
Vcharles h. garrigues
p13
aVanne kinney
p14
asS'rose malloy'
p15
(lp16
g3
asS'julius jacobs'
p17
(lp18
Vdorothy k. funn
p19
asS'john morgan'
p20
(lp21
Vcharles d. blodgett
p22
asS'abe gelbart'
p23
(lp24
Vwilliam t. martin
p25
aVisadore amdur
p26
aVnorman levinson
p27
asS'douglas w ward'
p28
(lp29
g22
asS'hilda geller'
p30
(lp31
Vjohn mills davis
p32
aVsamuel evens
p33
asS'herman waldreen'
p34
(lp35
Vdavid wolfe
p36
aVrobert gladnick
p37
aVherman waldman
p38
asS'dorothy w. douglas'
p39
(lp40
Vrobert gorham davis
p41
asS'john leech'
p42
(lp43
g14
asS'robert cohen'
p44
(lp45
g19
asVdildar sandow
p46
(lp47
Vdickson p. hill
p48
ag46
asS'herbert biberman'
p49
(lp50
Vharold hecht
p51
aVgertrude purcell
p52
aVleopold atlas
p53
aVroland w. kibbee
p54
asS'edward chodorov'
p55
(lp56
Vjerome robbins
p57
asS'anne froelich'
p58
(lp59
g53
asS'victor shapiro'
p60
(lp61
Vdavid a. lang
p62
ag53
aVrobert rossen
p63
asS'bill rutter'
p64
(lp65
g48
asS'jean hedley'
p66
(lp67
g48
asVzachary schwartz
p68
(lp69
g3
asS'frances itskowitz'
p70
(lp71
S'mike gold'
p72
aVfrances gordon
p73
asS'ruth jennings'
p74
(lp75
g74
aVnicholas campas
p76
asS'jessie carufo'
p77
(lp78
Vbabbette lang
p79
asS'carl grossenbacher'
p80
(lp81
g25
ag26
asS'dorothy woods'
p82
(lp83
g48
asS'charles oberkirch'
p84
(lp85
g48
aVjack davis
p86
asS'mike yarman'
p87
(lp88
g76
asS'katrina manley'
p89
(lp90
g48
aVbertha grover
p91
asS'joe rohr'
p92
(lp93
g3
asS'david herman'
p94
(lp95
g76
ag94
ag86
asS'arthur o wright'
p96
(lp97
Vmr. wright
p98
asS'benny goodman'
p99
(lp100
g14
asS'leon meadows'
p101
(lp102
Vcarin kinzel
p103
asS'stanley chapman'
p104
(lp105
g19
asS'zara becker'
p106
(lp107
g14
aVrichard byrd lewis
p108
asS'andy charles'
p109
(lp110
Vlou rosser
p111
asS'tillie olelvsiuk'
p112
(lp113
g3
asS'lee gold'
p114
(lp115
g33
aVmrs. irving
p116
aVsilvia richards
p117
aVmrs. nathan gold
p118
ag32
asS'bill redner'
p119
(lp120
Vmary e. p. bradsher
p121
asS'florence jacobs'
p122
(lp123
g19
asS'harry gordon'
p124
(lp125
g41
ag37
ag32
ag33
asS'nicholas c bartlett'
p126
(lp127
sS'aram attarian'
p128
(lp129
g22
asS'charles leonard'
p130
(lp131
g62
ag79
ag117
ag103
asS'paul heide'
p132
(lp133
g111
ag48
ag22
asS'mitchell lindeman'
p134
(lp135
g103
asS'daniel mccombe'
p136
(lp137
Vmr. kaplan
p138
asS'david saunders'
p139
(lp140
Vjames kendall
p141
asS'neil hignian'
p142
(lp143
g14
asS'salvatore gentilli'
p144
(lp145
g86
asS'david perloff'
p146
(lp147
Vabraham lin
p148
asS'carmen melia'
p149
(lp150
g22
asS'viola b shore'
p151
(lp152
g79
asS'louis geller'
p153
(lp154
g76
ag32
ag33
asS'clare burnstein'
p155
(lp156
g79
asS'irving gold'
p157
(lp158
g32
ag33
asS'irvin richter'
p159
(lp160
g19
asS'mildred flacks'
p161
(lp162
g19
asS'arnold manoff'
p163
(lp164
g62
ag53
aVlee j. cobb
p165
ag117
asS'bill ingham'
p166
(lp167
g14
asS'joe mcclosky'
p168
(lp169
g3
asS'donald n wheeler'
p170
(lp171
Vpauline s. townsend
p172
aVelizabeth bentley
p173
asS'marjorie robinson'
p174
(lp175
g3
asS'hank morley'
p176
(lp177
Vdarling adams
p178
asS'lawrence west'
p179
(lp180
g14
asS'selma bachelis'
p181
(lp182
g178
asS'gertrude selig'
p183
(lp184
g14
asVmr. rossen
p185
(lp186
Vlarry parks
p187
asS'angela clarke'
p188
(lp189
g103
asS'anya lieberson'
p190
(lp191
g14
asS'murry wagner'
p192
(lp193
Vdwight hauser
p194
asS'sam telford'
p195
(lp196
g141
asS'rose segure'
p197
(lp198
g14
asS'mason roberson'
p199
(lp200
g22
asS'richard frank'
p201
(lp202
Vbella v. dodd
p203
asS'jake price'
p204
(lp205
Vwilliam d. ames
p206
asS'sarah wepman'
p207
(lp208
Vmrs. wepman
p209
asS'kate lawson'
p210
(lp211
g178
asS'karen morley'
p212
(lp213
Vroy erwin
p214
ag187
asS'billie wachter'
p215
(lp216
g48
ag206
asS'gladys black'
p217
(lp218
g91
ag22
ag206
asS'fran salit'
p219
(lp220
g3
asS'clara riebej'
p221
(lp222
g19
asVmr. lusher
p223
(lp224
sS'sandra martin'
p225
(lp226
g22
asS'sam edelsteiu'
p227
(lp228
g76
asS'richard o. boyer'
p229
(lp230
g172
asS'kelly douglas'
p231
(lp232
g33
asS'will campbell'
p233
(lp234
g22
asS'arthur l. levy'
p235
(lp236
g235
asS'cliff stice'
p237
(lp238
g3
asS'beruyce p fleury'
p239
(lp240
Vmrs. fleury
p241
asS'dorothy comingore'
p242
(lp243
g62
asS'albert lockett'
p244
(lp245
g14
asS'charlie busk'
p246
(lp247
g91
asS'herbert davis'
p248
(lp249
Vherbert goldfrank
p250
asS'june kelleher'
p251
(lp252
g3
asS'joseph melia'
p253
(lp254
g48
ag22
ag206
asS'clarence tobet'
p255
(lp256
g48
ag206
asS'clarence davis'
p257
(lp258
g22
asS'also he fascism'
p259
(lp260
Vmanning johnson
p261
aVjohn edmiston
p262
aVleonard patterson
p263
asS'richard younce'
p264
(lp265
g22
asS'ben olson'
p266
(lp267
g117
ag19
asS'barbara wooley'
p268
(lp269
S'angus wooley'
p270
ag172
aVbarbara roberts
p271
asS'hugh bryson'
p272
(lp273
g111
ag141
asS'henriette martin'
p274
(lp275
g62
ag172
asS'charlotte wacker'
p276
(lp277
g19
asg111
(lp278
g111
asS'louis ivens'
p279
(lp280
sS'bill williams'
p281
(lp282
g206
asS'marie phillips'
p283
(lp284
g48
asS'robert rutman'
p285
(lp286
sS'pete matanami'
p287
(lp288
g48
asS'james gilliam'
p289
(lp290
g206
asS'nina oster'
p291
(lp292
g3
asS'sig hesse'
p293
(lp294
g48
asS'barbara darling'
p295
(lp296
sS'harry c. steinmetz'
p297
(lp298
g14
asS'wilhelmina maise'
p299
(lp300
g14
asS'joe lash'
p301
(lp302
g263
asS'johnny weber'
p303
(lp304
Vharry j. marks
p305
asS'euenore abowitz'
p306
(lp307
g14
asS'harry carlyle'
p308
(lp309
g214
ag172
asS'mary bindley'
p310
(lp311
g3
asS'george blake'
p312
(lp313
g32
asS'philip stevenson'
p314
(lp315
g53
ag172
asS'cecil beard'
p316
(lp317
g178
asS'lou harris'
p318
(lp319
g63
ag54
asS'sarah. hartman'
p320
(lp321
g320
asS'jules carson'
p322
(lp323
g14
asS'helen leonard'
p324
(lp325
g62
ag79
ag172
asS'tassia freed'
p326
(lp327
g14
asS'wendell h. furry'
p328
(lp329
g41
ag25
aVgranville hicks
p330
asS'jacob geyer'
p331
(lp332
g3
asS'sadie ornitz'
p333
(lp334
g79
ag86
asS'elizabeth grant'
p335
(lp336
g53
asS'al saxton'
p337
(lp338
Vernest l. seymour
p339
asS'martin mackie'
p340
(lp341
g22
asS'nicholas bela'
p342
(lp343
g62
ag172
asS'rose most'
p344
(lp345
g10
ag14
asS'betty gannett'
p346
(lp347
g14
asS'naomi robeson'
p348
(lp349
g53
ag194
asS'martha lepowsky'
p350
(lp351
Vmrs. john edith
p352
ag19
asS'howland chamberlin'
p353
(lp354
g14
asS'joe lynch'
p355
(lp356
g339
asS'ann r morgan'
p357
(lp358
S'ann rotti'
p359
asS'ohio. as cokimbus'
p360
(lp361
Vbyron thorwell darling
p362
ag203
asS'frauces capelle'
p363
(lp364
g48
ag91
ag206
asS'sam darcy'
p365
(lp366
g111
aS'joe koide'
p367
asS'clariua michelson'
p368
(lp369
g261
asS'catherine becker'
p370
(lp371
g172
asS'jody gilbert'
p372
(lp373
Vharvey narcisenfeld
p374
asS'john bittman'
p375
(lp376
g22
asS'vern anthony'
p377
(lp378
g3
asg367
(lp379
g3
asS'sam ornitz'
p380
(lp381
g37
ag48
asS'jack wetherwax'
p382
(lp383
g14
asS'ruth h. wellnian'
p384
(lp385
g3
asS'ballis blaisdell'
p386
(lp387
sS'dorothy tree'
p388
(lp389
g165
ag187
asS'helen jacobson'
p390
(lp391
g32
asS'margaret wilson'
p392
(lp393
g111
ag14
asS'edith landall'
p394
(lp395
g3
ag62
ag63
ag172
ag54
asS'william pomerance'
p396
(lp397
g178
ag63
ag172
asS'bertram edises'
p398
(lp399
g22
asS'jack manley'
p400
(lp401
g48
asS'milton casluier'
p402
(lp403
g14
asS'sidney weinbaum'
p404
(lp405
g10
asS'john jeffrey'
p406
(lp407
g51
ag14
ag263
asS'barrows dunham'
p408
(lp409
sS'ishmael flory'
p410
(lp411
g76
ag86
asS'isadore reivich'
p412
(lp413
sS'rose kliue'
p414
(lp415
g3
asS'sophia elfont'
p416
(lp417
Vstetson junior
p418
aVmiss ell
p419
asS'sidney benson'
p420
(lp421
g172
asS'bill young'
p422
(lp423
g117
asS'max posey'
p424
(lp425
g111
asS'naomi workman'
p426
(lp427
g37
asS'rude lauibtmt'
p428
(lp429
g14
asS'albert r williams'
p430
(lp431
Vbenjamin gitlow
p432
asS'margaret gilbert'
p433
(lp434
Vherbert a. philbrick
p435
asS'david kinkead'
p436
(lp437
g48
asS'ferdinand c smith'
p438
(lp439
g19
ag141
asS'sam cloner'
p440
(lp441
g178
asS'joan place'
p442
(lp443
g14
asS'celia wilhy'
p444
(lp445
g117
asS'gertrude fuller'
p446
(lp447
g53
asS'julian zimet'
p448
(lp449
g62
ag172
asS'william winston'
p450
(lp451
g33
asS'marvin bargeman'
p452
(lp453
g62
asS'lou baron'
p454
(lp455
g14
asS'ralph cohen'
p456
(lp457
g22
ag32
ag33
asS'gale sondergaard'
p458
(lp459
Vmr. gerber
p460
ag165
ag187
asS'albert byler'
p461
(lp462
g14
asS'bert cooper'
p463
(lp464
g214
asS'al white'
p465
(lp466
g3
ag263
ag111
ag121
asVmr. goldstein
p467
(lp468
g3
aVherbert philbrick
p469
asS'josephine. woods'
p470
(lp471
S'ida wood'
p472
asS'eddie fisher'
p473
(lp474
g14
asS'norman byrne'
p475
(lp476
g10
asS'ethel karson'
p477
(lp478
g3
asS'ben pollin'
p479
(lp480
g214
asS'charles reichman'
p481
(lp482
g3
asS'marjorie eisler'
p483
(lp484
g22
ag91
asS'kenneth roberts'
p485
(lp486
g22
asS'shirley taylor'
p487
(lp488
g19
asS'ben dobbs'
p489
(lp490
g111
asS'joe terry'
p491
(lp492
g22
asS'libby jacobson'
p493
(lp494
g14
asS'millard lanipell'
p495
(lp496
g117
asS'mortimer offner'
p497
(lp498
g62
aVsol shor
p499
asS'clarence hathaway'
p500
(lp501
g261
asS'bertha bargeman'
p502
(lp503
g62
asS'fanya friedman'
p504
(lp505
g14
asg36
(lp506
g34
ag117
asS'cedric h belfrage'
p507
(lp508
sS'wayne hultgren'
p509
(lp510
g48
ag206
asS'goldie gregurek'
p511
(lp512
Vmrs. funn
p513
asS'edward huebsch'
p514
(lp515
g62
asS'harry campbell'
p516
(lp517
g3
asS'roi sherman'
p518
(lp519
g111
ag339
asS'albert maltz'
p520
(lp521
g51
aVmax benoff
p522
ag53
ag79
asS'george sklar'
p523
(lp524
g62
asS'helen gardner'
p525
(lp526
g14
asS'joe ayeroff'
p527
(lp528
g111
asS'elizabeth leech'
p529
(lp530
Vbart lytton
p531
ag14
ag172
asS'herb kalman'
p532
(lp533
g48
ag91
ag339
asS'sylvia siegel'
p534
(lp535
g51
ag499
asS'mike obermier'
p536
(lp537
g76
ag86
asVharold t. woerner, jr.
p538
(lp539
sS'joe young'
p540
(lp541
g111
aS'charles gladstone'
p542
asS'samuel sillen'
p543
(lp544
g41
asS'jules keivetz'
p545
(lp546
g111
asS'lillian lowenfels'
p547
(lp548
Vmrs. ball
p549
aVmrs. lowenfeb
p550
ag14
asS'peter lyon'
p551
(lp552
g165
ag172
asS'sam kubin'
p553
(lp554
g3
asS'bill ellis'
p555
(lp556
g37
asS'david flacks'
p557
(lp558
g19
asS'elaine gonda'
p559
(lp560
g103
asS'inez hearn'
p561
(lp562
g22
asS'charles klare'
p563
(lp564
g3
asS'juanita wheeler'
p565
(lp566
g22
asS'solomon haas'
p567
(lp568
sS'frances tandy'
p569
(lp570
g48
asS'jessie pedrick'
p571
(lp572
g111
ag48
aVmax appleman
p573
ag91
asS'leona mcginty'
p574
(lp575
g14
aVmrs. howland cham
p576
asValice wil
p577
(lp578
S'alice wilson'
p579
asS'irene short'
p580
(lp581
g580
ag76
asS'duncan keir'
p582
(lp583
g141
asS'elizabeth moos'
p584
(lp585
g435
asS'jack ginsberg'
p586
(lp587
g14
asS'miriam cliassen'
p588
(lp589
g3
asS'bob robinson'
p590
(lp591
g3
asS'ralph izzard'
p592
(lp593
g22
asS'ann yanish'
p594
(lp595
g48
ag22
ag91
ag206
asS'wilhelmina laughery'
p596
(lp597
g121
ag91
ag206
ag48
asS'margaret cowl'
p598
(lp599
S'margaret undjus'
p600
asS'hannah shapiro'
p601
(lp602
g32
ag33
asS'lionel berman'
p603
(lp604
g57
asS'estelle n thomas'
p605
(lp606
Vmiss thomas
p607
asS'si fialkoff'
p608
(lp609
g76
asg148
(lp610
g53
asVpaul zilseh daniel fine
p611
(lp612
Vpeter bent
p613
asS'moe finklestein'
p614
(lp615
g203
asS'luke hinman'
p616
(lp617
g3
ag54
asS'steve oleksink'
p618
(lp619
g3
asVmr. levy
p620
(lp621
g305
asVjack edith macia
p622
(lp623
g141
asS'loretta starvus'
p624
(lp625
g111
ag48
ag305
ag206
asS'marian shire'
p626
(lp627
g14
asS'bernard vorhaus'
p628
(lp629
g63
asS'seth levine'
p630
(lp631
g19
asS'tom chapman'
p632
(lp633
g53
asS'desired ball'
p634
(lp635
g549
ag138
asS'john wexley'
p636
(lp637
g62
ag531
ag63
ag172
asS'bob rasland'
p638
(lp639
g121
asS'eugene eagle'
p640
(lp641
g48
asS'david livingston'
p642
(lp643
sS'richard b lewis'
p644
(lp645
Vbart mar.
p646
asS'calvin batiste'
p647
(lp648
g91
asS'james lerner'
p649
(lp650
g432
asS'allen l ryan'
p651
(lp652
g14
asS'gene morse'
p653
(lp654
g37
asS'george sandy'
p655
(lp656
g14
asS'sanders shelf'
p657
(lp658
g14
asS'pele edises'
p659
(lp660
g22
asS'george markham'
p661
(lp662
sS'aubrey grossman'
p663
(lp664
g111
ag48
asS'alfred levitt'
p665
(lp666
g62
ag53
asS'bill crockett'
p667
(lp668
g206
asS'george willner'
p669
(lp670
g79
ag53
ag117
asS'sam goodwin'
p671
(lp672
g111
asS'alexander riskin'
p673
(lp674
g14
asS'harry norman'
p675
(lp676
g3
ag62
asS'donald baker'
p677
(lp678
g111
asS'casey gurewitz'
p679
(lp680
g19
asS'mary nolan'
p681
(lp682
g432
ag68
ag178
asS'morrie smolan'
p683
(lp684
g13
ag14
asS'bill gandall'
p685
(lp686
g37
asS'reva handle'
p687
(lp688
g14
asS'tony s lucia'
p689
(lp690
g37
asS'gordon kahn'
p691
(lp692
g51
ag62
ag522
ag53
asS'robert arnold'
p693
(lp694
g32
asS'lynn hames'
p695
(lp696
g22
asS'irving myer'
p697
(lp698
g3
asS'alan philbrick'
p699
(lp700
g305
asS'harold klein'
p701
(lp702
g76
ag32
ag33
asS'ned young'
p703
(lp704
g22
asS'annette harper'
p705
(lp706
g194
ag103
asS'anna brickman'
p707
(lp708
g32
ag33
asS'william bender'
p709
(lp710
g32
asS'langston hughes'
p711
(lp712
g261
asS'hyman s kraft'
p713
(lp714
g63
asS'emily gordon'
p715
(lp716
g14
asS'ted kalman'
p717
(lp718
g48
ag91
ag206
asS'miss j gilbert'
p719
(lp720
g22
asS'violet orr'
p721
(lp722
g111
asS'charles gainor'
p723
(lp724
Vdr. gainor
p725
asS'dave hedley'
p726
(lp727
g111
asS'frank beye'
p728
(lp729
g3
ag14
asS'betty arden'
p730
(lp731
g14
asS'sondra gorney'
p732
(lp733
g531
ag172
asS'rubby sherr'
p734
(lp735
sS'teresa kalman'
p736
(lp737
g91
asS'harry tanner'
p738
(lp739
g79
asS'kostas dakchoylous'
p740
(lp741
g32
asS'nathan w margolis'
p742
(lp743
sS'bella reynolds'
p744
(lp745
Vbella lewitzky
p746
asS'blackie meyers'
p747
(lp748
g141
asS'nina handman'
p749
(lp750
g3
asS'git perlman'
p751
(lp752
g3
asS'joe adams'
p753
(lp754
g3
asS'esther j wagner'
p755
(lp756
g79
asS'tamara hovey'
p757
(lp758
g117
asS'hallie jonas'
p759
(lp760
g103
asS'john spears'
p761
(lp762
g14
asS'virgil akeson'
p763
(lp764
g19
asS'saul wachter'
p765
(lp766
g206
asS'tommy downs'
p767
(lp768
g3
asS'cleveland hearn'
p769
(lp770
g22
asS'alfred wagenknecht'
p771
(lp772
g261
asS'gene lien'
p773
(lp774
g48
ag121
asS'holland roberts'
p775
(lp776
g14
asS'paul r zllsel'
p777
(lp778
sS'sam kramberg'
p779
(lp780
g76
asS'daniel b schirmer'
p781
(lp782
g305
asS'sam gelfand'
p783
(lp784
g14
asS'howard fast'
p785
(lp786
g172
asS'herman beilan'
p787
(lp788
sVmrs. dave sharf
p789
(lp790
g3
asS'jens simousgard'
p791
(lp792
g14
asS'james branca'
p793
(lp794
g19
asS'paul curtis'
p795
(lp796
g62
asS'archie brown'
p797
(lp798
g37
ag111
ag22
ag339
asS'leo baroway'
p799
(lp800
g14
asS'pauline laserfin'
p801
(lp802
g62
asS'ella gonzales'
p803
(lp804
g121
asS'nerval crutcher'
p805
(lp806
g178
asS'ida rothstein'
p807
(lp808
g111
asS'ann white'
p809
(lp810
g214
ag103
asS'bjorne halliug'
p811
(lp812
g339
ag19
asVmr. green
p813
(lp814
g22
ag206
ag48
asS'henrietta palley'
p815
(lp816
g14
asg542
(lp817
g3
asVu. s.
p818
(lp819
Vjoseph klein
p820
asS'clement wilenchick'
p821
(lp822
sS'arcus reddock'
p823
(lp824
g14
asS'lester cole'
p825
(lp826
g62
ag63
ag53
ag499
asVmildred benoff
p827
(lp828
g22
asS'barbara bick'
p829
(lp830
g22
asS'herbert klein'
p831
(lp832
g14
asS'neil crowe'
p833
(lp834
g339
ag141
asS'charles a duarte'
p835
(lp836
g111
asS'sid hoff'
p837
(lp838
g37
asS'mack libby'
p839
(lp840
g305
asS'goldie bromberg'
p841
(lp842
g172
asS'calvin cousins'
p843
(lp844
g19
asS'lucy arnold'
p845
(lp846
g14
asS'angelina riskin'
p847
(lp848
g14
asS'june naboisek'
p849
(lp850
g121
asS'lloyd seeliger'
p851
(lp852
g111
asS'maurice rapf'
p853
(lp854
g62
ag63
ag172
ag54
asS'allen boretz'
p855
(lp856
g62
asS'william j. bailey'
p857
(lp858
g141
asS'eugene parker'
p859
(lp860
g22
asS'goodman brudney'
p861
(lp862
g22
asS'gertrude warwick'
p863
(lp864
g91
ag22
ag206
asS'joe crago'
p865
(lp866
g32
ag33
asS'rob hall'
p867
(lp868
g261
asS'george siskin'
p869
(lp870
g111
asS'lawn brooks'
p871
(lp872
g3
asVmr. andren
p873
(lp874
sS'lloyd gough'
p875
(lp876
g57
ag187
asS'betty seklen'
p877
(lp878
g14
asS'edwina pomerance'
p879
(lp880
g178
ag172
asS'eugene a toopeekoff'
p881
(lp882
g141
asS'elena beck'
p883
(lp884
g172
ag827
asS'rev. jack mcmichael'
p885
(lp886
g261
ag432
ag263
asS'emil freed'
p887
(lp888
g14
asS'roger capelle'
p889
(lp890
g48
ag91
asS'florence tobey'
p891
(lp892
g111
ag48
ag206
ag339
aVmr. tobey
p893
asS'miriam brooks'
p894
(lp895
g14
asS'lee coe'
p896
(lp897
g48
ag22
ag206
asS'irving velson'
p898
(lp899
g37
asS'charles dorenz'
p900
(lp901
g76
ag32
ag86
asS'jay moss'
p902
(lp903
g14
asS'bert corona'
p904
(lp905
g111
asS'fanny emer'
p906
(lp907
g3
asS'wesley bodkin'
p908
(lp909
g48
ag22
asS'henry blankfort'
p910
(lp911
g62
ag63
ag194
ag103
asS'kathleen hee'
p912
(lp913
g22
asS'preston hill'
p914
(lp915
g111
ag22
asS'john delgado'
p916
(lp917
g22
asS'lawrence arguimbau'
p918
(lp919
g25
ag26
ag27
asS'ole fagerhaugh'
p920
(lp921
g22
asVmary bradsher
p922
(lp923
g922
asS'elliott grennard'
p924
(lp925
g62
asS'calif hayward'
p926
(lp927
g48
asS'don cameron'
p928
(lp929
g339
asS'mary sherwood'
p930
(lp931
g48
asg820
(lp932
g76
ag178
asg271
(lp933
g22
ag141
asS'andrew mays'
p934
(lp935
g91
asS'joe carr'
p936
(lp937
g76
ag86
asS'georgia backus'
p938
(lp939
g63
ag214
ag117
ag194
ag103
asS'michael uris'
p940
(lp941
g62
ag63
asS'martha fletcher'
p942
(lp943
g435
aVmrs. harry
p944
asS'dave grant'
p945
(lp946
g305
asS'james dow'
p947
(lp948
g48
ag206
ag54
ag141
asS'sam moore'
p949
(lp950
g172
ag214
ag117
ag194
asS'nathan goldstein'
p951
(lp952
g32
ag33
asS'jeauette dworkin'
p953
(lp954
g32
ag33
asg52
(lp955
Vkapf maurice
p956
aVpaul benedict mar. 12
p957
asS'leo selfrid'
p958
(lp959
g14
asS'louis mcmullen'
p960
(lp961
g48
asS'sidney belinky'
p962
(lp963
g32
ag33
asS'charles a page'
p964
(lp965
Vmorris appelman
p966
asVjack 01
p967
(lp968
g41
ag330
ag111
ag22
ag14
aVgeorge mayberry
p969
aVdaniel j. boorstin
p970
ag121
ag27
asS'florence mcdonald'
p971
(lp972
g3
asS'harry kramer'
p973
(lp974
g22
asS'dave drummond'
p975
(lp976
g37
asS'ludwig donath'
p977
(lp978
g165
asS'lilith james'
p979
(lp980
g531
ag63
ag172
asS'sally attarian'
p981
(lp982
g22
asS'connie l bennett'
p983
(lp984
g62
asS'serrill gerber'
p985
(lp986
g3
ag111
asS'max bogner'
p987
(lp988
g14
asS'peter stein'
p989
(lp990
sS'herbert parker'
p991
(lp992
g76
asS'mary kotick'
p993
(lp994
g32
asS'doreen holtz'
p995
(lp996
g3
asS'harold buchman'
p997
(lp998
g62
ag63
ag172
ag54
asVann roth morgan
p999
(lp1000
g999
asS'edith hershey'
p1001
(lp1002
g3
asS'art wolstenholme'
p1003
(lp1004
g22
asS'mary robinson'
p1005
(lp1006
g214
asS'oscar fuss'
p1007
(lp1008
g14
asS'bess taffel'
p1009
(lp1010
g62
ag53
asg250
(lp1011
g248
ag117
asS'myrtle wixman'
p1012
(lp1013
g14
asS'bill clifford'
p1014
(lp1015
g48
ag206
asS'paul jarrico'
p1016
(lp1017
g522
ag63
ag121
asS'freda spivak'
p1018
(lp1019
g3
asS'elias schwarzbart'
p1020
(lp1021
g32
ag33
asS'robert wachsman'
p1022
(lp1023
Vcharles daggett
p1024
asS'lillian gerber'
p1025
(lp1026
g3
asS'charles hendley'
p1027
(lp1028
g41
asS'gene hammond'
p1029
(lp1030
g121
asS'godine eagle'
p1031
(lp1032
g48
asS'caroline perloff'
p1033
(lp1034
Vmrs. perloff
p1035
asS'minna klein'
p1036
(lp1037
g14
asS'warner calloway'
p1038
(lp1039
g91
asS'harold dimsdale'
p1040
(lp1041
g3
asS'george gorchoff'
p1042
(lp1043
g37
asS'lillian heron'
p1044
(lp1045
g3
asS'ruth finkelstein'
p1046
(lp1047
g19
asS'carl williams'
p1048
(lp1049
g339
asS'sam wixman'
p1050
(lp1051
g14
asS'bernadette doyle'
p1052
(lp1053
g48
asS'mrs. fisher'
p1054
(lp1055
g3
asS'nina klowden'
p1056
(lp1057
g214
ag194
ag103
asS'celeste strack'
p1058
(lp1059
g111
asS'carl brodsky'
p1060
(lp1061
g32
asS'david hillierman'
p1062
(lp1063
g178
asS'jean richardson'
p1064
(lp1065
g14
asS'joy williams'
p1066
(lp1067
g111
asS'rosalie crockett'
p1068
(lp1069
g206
asS'bill lawrence'
p1070
(lp1071
g37
ag76
ag206
ag48
asS'miriam chown'
p1072
(lp1073
g48
asS'what is smith'
p1074
(lp1075
Vjoseph springer
p1076
asS'matt vidaver'
p1077
(lp1078
g117
asS'larne mccormiek'
p1079
(lp1080
g14
asS'thomas deaoon'
p1081
(lp1082
Vsulzberger junior high
p1083
asS'norman perlman'
p1084
(lp1085
g3
asS'emmett teague'
p1086
(lp1087
g48
asS'doris roberson'
p1088
(lp1089
g48
asS'catherine larkin'
p1090
(lp1091
g79
asS'arthur barry'
p1092
(lp1093
g76
asS'beulah wales'
p1094
(lp1095
g14
asS'trudy peck'
p1096
(lp1097
g51
asS'sam horn'
p1098
(lp1099
g62
ag3
ag79
ag54
asS'william g soler'
p1100
(lp1101
sS'martha mcmullen'
p1102
(lp1103
g48
ag960
asS'john h lawson'
p1104
(lp1105
g51
ag522
ag53
ag531
ag62
ag165
ag172
ag54
asVroy hudson
p1106
(lp1107
g3
ag261
ag111
asS'arnold dorenz'
p1108
(lp1109
g76
asS'shelly davis'
p1110
(lp1111
g22
asg57
(lp1112
g14
ag57
asS'bernie nidiss'
p1113
(lp1114
g3
asS'harry tarnoff'
p1115
(lp1116
g14
asS'rudy baker'
p1117
(lp1118
g367
asS'george v frederick'
p1119
(lp1120
g48
ag121
asS'barta numovna'
p1121
(lp1122
g10
ag14
ag108
asS'henry peterson'
p1123
(lp1124
g62
ag63
ag178
asS'william t. parry'
p1125
(lp1126
g41
asS'howard koch'
p1127
(lp1128
g62
ag178
asS'walter kirkon'
p1129
(lp1130
g22
asS'edward biberman'
p1131
(lp1132
g51
ag62
ag68
ag178
asS'john h reynolds'
p1133
(lp1134
g41
ag25
ag27
asS'estelle foreman'
p1135
(lp1136
g62
ag79
asS'holly perlman'
p1137
(lp1138
g3
asS'saul friedburg'
p1139
(lp1140
g305
asS'elizabeth guarnaccia'
p1141
(lp1142
g435
asS'art shields'
p1143
(lp1144
Vdorrhy k. fttttj
p1145
asS'maureen ryan'
p1146
(lp1147
g14
asS'john doberty'
p1148
(lp1149
g3
asS'libby minkus'
p1150
(lp1151
g14
asS'anna l strong'
p1152
(lp1153
g432
asS'tiba willner'
p1154
(lp1155
g79
ag117
asS'jane wallace'
p1156
(lp1157
S'jane wilson'
p1158
asS'nemmy sparks'
p1159
(lp1160
g305
ag53
ag172
asS'edith johnson'
p1161
(lp1162
g3
asS'jerome chodorov'
p1163
(lp1164
g57
asS'joseph zadow'
p1165
(lp1166
g14
asS'evelyn fargo'
p1167
(lp1168
g14
asS'zema matlin'
p1169
(lp1170
g14
asS'guy endore'
p1171
(lp1172
g62
ag63
ag79
ag53
asS'selma lahne'
p1173
(lp1174
g76
asS'john dicho'
p1175
(lp1176
g3
asS'hymie aliiert'
p1177
(lp1178
g3
asS'fred rinaldo'
p1179
(lp1180
g63
ag172
asS'tom brown'
p1181
(lp1182
g111
ag48
ag14
ag121
asS'frank parsons'
p1183
(lp1184
g62
ag48
ag14
ag91
ag121
asS'eleanor smith'
p1185
(lp1186
g22
ag91
asS'evelyn weinstein'
p1187
(lp1188
g32
ag1187
asS'william bottcher'
p1189
(lp1190
g32
ag33
asS'adam lapin'
p1191
(lp1192
g432
ag22
asS'elaine black'
p1193
(lp1194
g111
asS'rose clinton'
p1195
(lp1196
g19
asS'ethel holmstock'
p1197
(lp1198
g14
asVpauline lauber finn
p1199
(lp1200
g1199
asg91
(lp1201
g91
asS'beatrice l cole'
p1202
(lp1203
g172
asS'amalia p crago'
p1204
(lp1205
g76
ag32
ag86
ag33
asS'sue rossen'
p1206
(lp1207
g172
asS'matthew crawford'
p1208
(lp1209
g111
asS'anna taft'
p1210
(lp1211
g37
asS'lem belton'
p1212
(lp1213
g19
asS'dorothy zadow'
p1214
(lp1215
g14
asS'robert neville'
p1216
(lp1217
g48
ag121
ag206
asS'john stanford'
p1218
(lp1219
g62
ag172
asS'lou solomon'
p1220
(lp1221
g62
ag63
ag172
asS'leo bigelman'
p1222
(lp1223
g63
ag172
ag14
asS'a englehart'
p1224
(lp1225
g3
ag48
asS'funn dorothy k'
p1226
(lp1227
sS'ann r richards'
p1228
(lp1229
g531
ag63
ag576
ag62
ag53
ag79
ag172
asS'robert treuhaft'
p1230
(lp1231
g22
asS'elizabeth. augustine'
p1232
(lp1233
Velizabeth mcmuuen
p1234
asS'michael dworkin'
p1235
(lp1236
g32
ag33
asS'adele margolis'
p1237
(lp1238
Vmrs. nathan mar
p1239
asS'arthur newman'
p1240
(lp1241
g48
ag19
asS'lloyd lehman'
p1242
(lp1243
g111
ag48
asS'bobbie karson'
p1244
(lp1245
g3
asS'fred biedenkapp'
p1246
(lp1247
g261
asS'in 1944 party'
p1248
(lp1249
S'harry jackson'
p1250
aS'harrison george'
p1251
aS'al brown'
p1252
ag661
ag1106
asS'bob roberts'
p1253
(lp1254
g62
asS'norma barzman'
p1255
(lp1256
g172
asS'shirley kanter'
p1257
(lp1258
g172
asS'ella winter'
p1259
(lp1260
g62
aVmrs. willard parker bereniece baldwin
p1261
ag261
asg73
(lp1262
g32
aVmrs. harry john mills davis
p1263
ag33
asg1158
(lp1264
g10
ag14
asS'ben barzman'
p1265
(lp1266
g63
ag172
asS'william albertson'
p1267
(lp1268
g76
ag86
asS'herbert naboisek'
p1269
(lp1270
g121
asS'waldo salt'
p1271
(lp1272
g62
ag54
asS'bert stone'
p1273
(lp1274
g14
asS'george shaffer'
p1275
(lp1276
g14
asS'maurice howard'
p1277
(lp1278
g178
asS'morton nadler'
p1279
(lp1280
g14
asS'rather party'
p1281
(lp1282
g37
asS'james tourney'
p1283
(lp1284
Vjim thorne
p1285
ag14
asS'william michelson'
p1286
(lp1287
g22
ag32
asS'anne green'
p1288
(lp1289
g53
asg1234
(lp1290
g48
aVmrs. arthur mayhew
p1291
asS'louise thompson'
p1292
(lp1293
g261
ag48
ag91
ag111
ag206
ag121
asS'sophia salit'
p1294
(lp1295
g3
asS'harold schachter'
p1296
(lp1297
Vcarlton col
p1298
ag22
asS'madelaine ruthven'
p1299
(lp1300
g51
ag62
ag63
ag172
asS'jeannette finkelstein'
p1301
(lp1302
g19
asS'ernest boykin'
p1303
(lp1304
g22
ag141
asS'sarah simonsgard'
p1305
(lp1306
g14
asS'esther soler'
p1307
(lp1308
Vmrs. robert treu
p1309
aVwilliam b. mann school
p1310
asS'rose pearson'
p1311
(lp1312
g51
asS'burton freund'
p1313
(lp1314
g3
asS'helen mallof'
p1315
(lp1316
g22
ag14
asS'leila thompson'
p1317
(lp1318
g48
ag22
ag91
ag206
asS'charles stone'
p1319
(lp1320
g3
asS'benjamin d anton'
p1321
(lp1322
sS'sandra young'
p1323
(lp1324
g3
asS'ruth s ryan'
p1325
(lp1326
g79
ag14
asS'everett weil'
p1327
(lp1328
g172
asS'harry shepro'
p1329
(lp1330
g10
ag14
ag108
asS'val burton'
p1331
(lp1332
g62
asS'bruce anderson'
p1333
(lp1334
g121
asS'dave himinelstein'
p1335
(lp1336
g111
asS'israel halperin'
p1337
(lp1338
g41
aVmr. robbins
p1339
ag330
ag25
ag969
ag970
asS'albert blumberg'
p1340
(lp1341
g19
asS'emma stanley'
p1342
(lp1343
g48
asS'shimen raskin'
p1344
(lp1345
g165
asS'jean frederick'
p1346
(lp1347
g121
aVmrs. george van fred
p1348
asS'walter kolowski'
p1349
(lp1350
g37
asVmrs. gus browne edith macia
p1351
(lp1352
g3
asS'helen pate'
p1353
(lp1354
g3
asS'elizabetb barlow'
p1355
(lp1356
g48
aVmrs. edward bar
p1357
ag91
ag206
asS'betty laros'
p1358
(lp1359
g32
ag86
ag33
asS'morris salz'
p1360
(lp1361
Vdorothy k. fram
p1362
aVk. frmn
p1363
asS'harriet bouslog'
p1364
(lp1365
g19
asS'the committee springer'
p1366
(lp1367
Vmax klansky
p1368
asS'evelyn hanson'
p1369
(lp1370
g22
asS'herbert feay'
p1371
(lp1372
g76
ag86
asS'joe saul'
p1373
(lp1374
g79
ag1076
asS'evelyn keller'
p1375
(lp1376
g14
asS'leo rossman'
p1377
(lp1378
g141
asVmr. maurice murphy
p1379
(lp1380
g54
asS'bernhard stern'
p1381
(lp1382
g330
asS'russell a nixon'
p1383
(lp1384
g19
asS'johnny cole'
p1385
(lp1386
g53
asS'john looschen'
p1387
(lp1388
sS'martin hall'
p1389
(lp1390
g432
asS'charles pfeiffer'
p1391
(lp1392
g111
asS'andreas dinam'
p1393
(lp1394
g172
asS'sue cohen'
p1395
(lp1396
g14
asS'clara davis'
p1397
(lp1398
g33
asS'margaret maltz'
p1399
(lp1400
g79
asS'howard dimsdale'
p1401
(lp1402
g62
ag117
asS'hjalmar peterson'
p1403
(lp1404
g178
asS'ora kelly'
p1405
(lp1406
g22
asS'donald murray'
p1407
(lp1408
g14
asS'harry g itskowitz'
p1409
(lp1410
g124
asS'leslie edgley'
p1411
(lp1412
g62
ag172
asS'maurice braverman'
p1413
(lp1414
g19
asS'george bratoff'
p1415
(lp1416
g48
asS'leon shapiro'
p1417
(lp1418
g32
ag33
asS'martin chancey'
p1419
(lp1420
g19
asS'robert richards'
p1421
(lp1422
g172
asS'honor carey'
p1423
(lp1424
g10
ag14
ag108
asS'rosalind freud'
p1425
(lp1426
g3
asS'louise janis'
p1427
(lp1428
g172
asS'alexander kolker'
p1429
(lp1430
g53
ag117
ag32
aVmrs. lou lou rosser
p1431
ag172
ag33
asS'nathan jacobson'
p1432
(lp1433
g339
asS'robert bush'
p1434
(lp1435
g1434
ag172
asS'stanley roberts'
p1436
(lp1437
g63
aS'sarah oilman'
p1438
aVedna rosen
p1439
asS'dorothy pezman'
p1440
(lp1441
g14
asS'jeff kibre'
p1442
(lp1443
g178
ag54
asS'john little'
p1444
(lp1445
g37
asS'tanya tuttle'
p1446
(lp1447
g172
asS'charlie white'
p1448
(lp1449
g121
asS'mrs. pieper'
p1450
(lp1451
g22
asS'ozzo marrow'
p1452
(lp1453
g91
asS'pauline vinson'
p1454
(lp1455
Vmrs. owen vinson
p1456
aS'pauline hopkins'
p1457
asS'oleta o yates'
p1458
(lp1459
Voleta o'connor
p1460
ag111
asS'thelma dale'
p1461
(lp1462
g19
asS'frieda trachgin'
p1463
(lp1464
g3
asS'anna shepro'
p1465
(lp1466
g10
ag108
asg579
(lp1467
g37
asS'martha stone'
p1468
(lp1469
g111
asS'inirs. alvah bessie'
p1470
(lp1471
g62
ag53
ag63
asS'john hubley'
p1472
(lp1473
g178
asS'ruth weber'
p1474
(lp1475
g53
asS'elsie monjar'
p1476
(lp1477
g111
aVmiss monjar
p1478
asS'arthur birnkarnt'
p1479
(lp1480
g62
ag172
asS'arthur osman'
p1481
(lp1482
g261
ag1363
aVoifioe workei
p1483
asS'paul perlin'
p1484
(lp1485
g178
asS'louis goldblatt'
p1486
(lp1487
g111
aVlewis miller
p1488
asS'maurice perlman'
p1489
(lp1490
g3
asS'richard lynden'
p1491
(lp1492
g111
asS'marjorie macgregor'
p1493
(lp1494
g10
ag172
asS'glenda sullivan'
p1495
(lp1496
g63
asS'lou. schneiderman'
p1497
(lp1498
g223
asS'sadie dawson'
p1499
(lp1500
g3
asS'william s. johnson'
p1501
(lp1502
g19
asS'lester fuller'
p1503
(lp1504
g53
ag63
asS'bob raven'
p1505
(lp1506
g37
ag3
asS'walter laniliert'
p1507
(lp1508
g62
ag14
ag117
asS'meridel leseuer'
p1509
(lp1510
g22
asVmr. silver
p1511
(lp1512
sS'marge price'
p1513
(lp1514
g206
asS'louise gilliam'
p1515
(lp1516
g206
asVlouise losey
p1517
(lp1518
g1517
ag172
asS'jack burris'
p1519
(lp1520
g111
asS'phoebe brand'
p1521
(lp1522
g165
asS'flora webster'
p1523
(lp1524
g549
asS'jay riibiu'
p1525
(lp1526
g76
aVjay rubin
p1527
ag86
asS'len decaux'
p1528
(lp1529
g19
asVherbert robbins
p1530
(lp1531
g57
asS'otis a hood'
p1532
(lp1533
g469
asS'edith sharpe'
p1534
(lp1535
g91
ag22
ag206
asS'rose hobart'
p1536
(lp1537
g165
asS'max weitzman'
p1538
(lp1539
g469
asS'decca treuhaft'
p1540
(lp1541
g48
ag1309
asS'louise moss'
p1542
(lp1543
g62
ag3
ag1527
asS'george edwards'
p1544
(lp1545
g48
ag22
ag206
asS'stanley hancock'
p1546
(lp1547
g13
asS'lettie stever'
p1548
(lp1549
g57
asS'harry bridges'
p1550
(lp1551
g141
asS'frank oppenheimer'
p1552
(lp1553
g14
asS'francis e faragoh'
p1554
(lp1555
Vreis rosenberg
p1556
aVedward dmytryk
p1557
asS'seymour bennett'
p1558
(lp1559
g62
asS'marie. rinaldo'
p1560
(lp1561
g172
ag827
asS'ann nechemias'
p1562
(lp1563
g19
asS'jean mayer'
p1564
(lp1565
g14
asS'donald hatcliigan'
p1566
(lp1567
g76
ag32
ag86
asS'theodore s. polumbaum'
p1568
(lp1569
sS'clara rairland'
p1570
(lp1571
g121
asS'michael wilson'
p1572
(lp1573
g62
ag79
asS'rosalind lindesmith'
p1574
(lp1575
g48
ag206
asS'louis green'
p1576
(lp1577
g22
asS'paul chown'
p1578
(lp1579
g48
ag22
asS'clarice chapman'
p1580
(lp1581
g53
asS'mort newman'
p1582
(lp1583
g111
asS'fanny lehman'
p1584
(lp1585
g22
ag206
asS'betty. martin'
p1586
(lp1587
g14
asS'sol kaplan'
p1588
(lp1589
g138
ag141
asS'henry beitscher'
p1590
(lp1591
g19
asS'shirley fields'
p1592
(lp1593
g76
ag1592
asg1457
(lp1594
g214
ag117
ag103
asS'carl brandt'
p1595
(lp1596
g111
ag14
asS'eunice mindlin'
p1597
(lp1598
g62
asVamalia pesko crago
p1599
(lp1600
g865
asS'harry rich'
p1601
(lp1602
g111
ag76
aS'al lannon'
p1603
ag86
asS'stanley praeger'
p1604
(lp1605
g531
ag172
asS'dick criley'
p1606
(lp1607
g111
asS'allen johnson'
p1608
(lp1609
g22
asS'harry f. ward'
p1610
(lp1611
g261
ag263
asS'charlotte kyer'
p1612
(lp1613
g48
asVelizabeth mc
p1614
(lp1615
S'elizabeth. mayhew'
p1616
asS'shirley stone'
p1617
(lp1618
g3
aVshirley ellis
p1619
asg98
(lp1620
g98
ag33
asg746
(lp1621
Vmrs. newell rey
p1622
ag14
asS'dean hood'
p1623
(lp1624
g111
asS'sonya solotoy'
p1625
(lp1626
g14
asS'dorothy olson'
p1627
(lp1628
g3
ag117
asS'beckie wolstenholme'
p1629
(lp1630
g22
aVmrs. art wol
p1631
asS'frank moskin'
p1632
(lp1633
g3
asS'jack lazar'
p1634
(lp1635
g3
ag76
asS'paul trabusis'
p1636
(lp1637
g62
asS'bea baron'
p1638
(lp1639
g14
asS'harry fruit'
p1640
(lp1641
sS'george mclean'
p1642
(lp1643
g14
asg270
(lp1644
g172
asS'george chakin'
p1645
(lp1646
g37
asS'julian gordon'
p1647
(lp1648
g76
ag86
asS'don gordon'
p1649
(lp1650
g14
ag178
asS'herman mazer'
p1651
(lp1652
g3
asS'gertrude evans'
p1653
(lp1654
g19
asS'herman clott'
p1655
(lp1656
g19
asVv. j.
p1657
(lp1658
g25
ag26
ag32
ag33
ag14
asS'bea burke'
p1659
(lp1660
g14
asS'dorothy loeb'
p1661
(lp1662
g76
ag820
asS'ruby heide'
p1663
(lp1664
g48
ag22
asS'john poziomek'
p1665
(lp1666
g111
ag32
ag33
asS'paul rosenfeld'
p1667
(lp1668
g172
asS'libby corngold'
p1669
(lp1670
g111
asS'josef michel'
p1671
(lp1672
g63
asS'freddie walker'
p1673
(lp1674
g91
asS'mary c grier'
p1675
(lp1676
Vgeological grier
p1677
asS'harry judis'
p1678
(lp1679
g3
ag1678
asS'janet scott'
p1680
(lp1681
g14
ag32
ag33
asg374
(lp1682
sS'george morris'
p1683
(lp1684
g111
asS'frieda schweukmyer'
p1685
(lp1686
g76
ag86
asS'ray halpern'
p1687
(lp1688
g91
asS'richard schlatter'
p1689
(lp1690
sS'pettis perry'
p1691
(lp1692
g14
asS'dalton trmiibo'
p1693
(lp1694
g62
ag522
ag63
ag53
asS'iva anthony'
p1695
(lp1696
g3
asg1250
(lp1697
g111
asS'marjorie canrlght'
p1698
(lp1699
g22
aVmrs. norman can
p1700
asS'fred williams'
p1701
(lp1702
g91
asg1438
(lp1703
Vgilman rosenblatt
p1704
ag19
asS'janet mcharg'
p1705
(lp1706
g48
asS'harriet belinky'
p1707
(lp1708
g32
ag33
asS'libby hilherman'
p1709
(lp1710
Vmrs. dave hilber
p1711
asS'hilton wolf'
p1712
(lp1713
g3
asS'janet stevenson'
p1714
(lp1715
Vmrs. philip steven
p1716
ag172
asS'alberto moreau'
p1717
(lp1718
g19
asS'sidney claibourne'
p1719
(lp1720
g22
asS'jean rand'
p1721
(lp1722
g111
ag1721
asS'edward barlow'
p1723
(lp1724
g48
ag91
asS'henry shire'
p1725
(lp1726
g14
ag19
asS'michael frank'
p1727
(lp1728
g3
asS'hyman koppelman'
p1729
(lp1730
g19
asS'miriam holtz'
p1731
(lp1732
g14
asS'walter stack'
p1733
(lp1734
g111
ag141
asS'dan james'
p1735
(lp1736
g62
ag531
ag172
asg1251
(lp1737
g14
asS'frank tarloff'
p1738
(lp1739
g62
ag172
asS'leo gerstinheim'
p1740
(lp1741
g76
asS'ruth burrows'
p1742
(lp1743
g172
asS'edith bomser'
p1744
(lp1745
g3
asS'ruth standish'
p1746
(lp1747
g22
asS'molly young'
p1748
(lp1749
g117
asS'charles blacklock'
p1750
(lp1751
g22
asS'bill norman'
p1752
(lp1753
g3
ag37
ag203
aVsteve miller
p1754
ag261
asS'robert campbell'
p1755
(lp1756
g19
asS'john bevins'
p1757
(lp1758
g14
asS'luther morris'
p1759
(lp1760
g22
ag206
asS'molly thorner'
p1761
(lp1762
g206
asS'dorothy blumberg'
p1763
(lp1764
g549
ag19
asS'william creque'
p1765
(lp1766
g48
asS'lillian jones'
p1767
(lp1768
g14
asS'paul mcvey'
p1769
(lp1770
g194
ag214
ag1769
ag103
asS'florence hutchinson'
p1771
(lp1772
g48
asS'eva lapin'
p1773
(lp1774
g22
asS'kathleen griffitli'
p1775
(lp1776
g1775
asS'robert black'
p1777
(lp1778
g91
ag22
ag206
asS'dora garber'
p1779
(lp1780
g3
asS'revels. cayton'
p1781
(lp1782
g111
ag19
asS'marcus singer'
p1783
(lp1784
g26
asS'rude lambert'
p1785
(lp1786
g48
asS'hugo butler'
p1787
(lp1788
g62
ag63
ag499
asS'robert dwinnell'
p1789
(lp1790
g22
asS'abraham mlnkus'
p1791
(lp1792
g10
ag14
ag108
asS'al heltness'
p1793
(lp1794
g14
asS'sidney bloomfield'
p1795
(lp1796
g41
ag305
asS'edna ocko'
p1797
(lp1798
g57
asS'hoyt haddock'
p1799
(lp1800
g19
asS'sophia malloy'
p1801
(lp1802
g3
asS'nori lafferty'
p1803
(lp1804
g48
asVmarguerite roberts
p1805
(lp1806
g53
ag62
ag63
ag10
ag172
asS'harry haywood'
p1807
(lp1808
g111
asS'anne witkowski'
p1809
(lp1810
g3
asS'flo cohen'
p1811
(lp1812
g32
ag33
asS'john smith'
p1813
(lp1814
g22
asS'samuel stember'
p1815
(lp1816
g37
ag1791
asS'dorothy anhattzer'
p1817
(lp1818
g3
asg1603
(lp1819
g19
asS'jane march'
p1820
(lp1821
g14
asS'george tyne'
p1822
(lp1823
g165
asS'sam kalish'
p1824
(lp1825
g10
ag14
ag108
asS'lena wiena'
p1826
(lp1827
g3
asg1363
(lp1828
g22
asS'ben maddow'
p1829
(lp1830
g172
asS'carl hacker'
p1831
(lp1832
g76
ag86
asS'doris fogarty'
p1833
(lp1834
g48
asS'jane callender'
p1835
(lp1836
g3
asS'allan bomser'
p1837
(lp1838
g3
asS'byron t darling'
p1839
(lp1840
g1434
aVedward gewirts
p1841
ag723
asS'adrian scott'
p1842
(lp1843
g62
ag63
asS'bill danzig'
p1844
(lp1845
g22
asS'leo m. hurvich'
p1846
(lp1847
g48
asS'reuben ship'
p1848
(lp1849
g172
ag103
asS'jack s. zucker'
p1850
(lp1851
g19
asS'peter chaunt'
p1852
(lp1853
g261
ag48
asS'morris carnovsky'
p1854
(lp1855
g165
ag187
asg339
(lp1856
g339
asS'arthur strawn'
p1857
(lp1858
g53
asS'john rapf'
p1859
(lp1860
g214
ag53
ag172
asS'hulda j flynn'
p1861
(lp1862
g41
asS'steve murdock'
p1863
(lp1864
g22
asS'jack fox'
p1865
(lp1866
g111
ag14
aVmrs. fred franchi
p1867
ag86
asS'earl phillips'
p1868
(lp1869
g48
ag22
asS'ruth hultgren'
p1870
(lp1871
g22
ag206
asS'elizabeth faragoh'
p1872
(lp1873
g513
ag172
asg138
(lp1874
g111
aVthomas delaney
p1875
ag138
asS'virginia mullen'
p1876
(lp1877
sS'jacob mindel'
p1878
(lp1879
g111
asS'marcella avnet'
p1880
(lp1881
g19
asg141
(lp1882
g76
ag86
asS'fred putnam'
p1883
(lp1884
g3
ag14
asS'anna mcintosh'
p1885
(lp1886
g22
aVben davis club
p1887
asS'margaret ginsberg'
p1888
(lp1889
g14
asS'marian redner'
p1890
(lp1891
g121
asS'sylvia elfenbein'
p1892
(lp1893
g19
asS'martin berkeley'
p1894
(lp1895
sS'helen wheeler'
p1896
(lp1897
g111
ag1896
asS'rose bush'
p1898
(lp1899
g3
ag14
ag789
asS'anita boyagian'
p1900
(lp1901
g3
asg1076
(lp1902
g37
ag1373
asS'alex treskiu'
p1903
(lp1904
g48
asg108
(lp1905
g14
ag108
asS'dolph winebrenner'
p1906
(lp1907
g14
asS'kicliard goodwin'
p1908
(lp1909
g41
ag970
asS'horace pratt'
p1910
(lp1911
g3
asg1252
(lp1912
g3
asS'jane d kelly'
p1913
(lp1914
g3
asS'josephine w eidenoff'
p1915
(lp1916
g48
asS'edna r coleman'
p1917
(lp1918
g19
ag1439
asS'william schneiderman'
p1919
(lp1920
g62
ag111
ag22
ag14
asS'nathan rosen'
p1921
(lp1922
g26
asS'cleophas brown'
p1923
(lp1924
g22
ag206
asS'russell w bnrnstein'
p1925
(lp1926
g79
asS'esther goodman'
p1927
(lp1928
g111
asg472
(lp1929
g48
asS'david rappaport'
p1930
(lp1931
g76
ag32
ag1930
ag86
ag33
asS'sarah bognoff'
p1932
(lp1933
g13
asS'edward strong'
p1934
(lp1935
g19
asS'sara kusiiitz'
p1936
(lp1937
g3
ag14
asVk. funn
p1938
(lp1939
g62
ag54
asS'ann revere'
p1940
(lp1941
g165
ag187
asS'morris keller'
p1942
(lp1943
g48
asS'ivirs. sarah kaufman'
p1944
(lp1945
g32
ag33
asS'madeline lee'
p1946
(lp1947
g57
asS'ohio. cincinnati'
p1948
(lp1949
g76
ag86
asS'martha campion'
p1950
(lp1951
g261
ag1950
asS'dave teitelbaum'
p1952
(lp1953
g141
asS'herschel alexander'
p1954
(lp1955
g103
ag194
ag111
ag22
ag117
ag206
asS'arthur anhattzer'
p1956
(lp1957
g3
asVmr. lazarus
p1958
(lp1959
sS'william taylor'
p1960
(lp1961
g19
asS'ian hunter'
p1962
(lp1963
g63
ag172
asS'gus browne'
p1964
(lp1965
g22
asS'carl winter'
p1966
(lp1967
g14
ag172
asg25
(lp1968
g48
asS'jack robinson'
p1969
(lp1970
g214
asS'bert witkowski'
p1971
(lp1972
g3
asS'ben bengal'
p1973
(lp1974
g172
asS'bob chasson'
p1975
(lp1976
g111
ag14
asS'ann r rieliards'
p1977
(lp1978
g19
asS'gertrude lane'
p1979
(lp1980
g86
asS'carl hanson'
p1981
(lp1982
g91
ag22
ag14
ag206
asS'george lafortune'
p1983
(lp1984
g76
ag86
asS'sid partridge'
p1985
(lp1986
g22
asS'donald henderson'
p1987
(lp1988
g261
asS'willie schulz'
p1989
(lp1990
g76
ag86
asS'evelyn howard'
p1991
(lp1992
sS'cyril endfield'
p1993
(lp1994
g62
asS'pauline l finn'
p1995
(lp1996
S'pauline. lauber'
p1997
ag63
ag172
ag103
asS'opal terry'
p1998
(lp1999
g22
asS'marie calloway'
p2000
(lp2001
g91
asS'phil bard'
p2002
(lp2003
g37
asS'gerry schlein'
p2004
(lp2005
g165
asS'dodd bella v'
p2006
(lp2007
g19
asS'kathleen dickerson'
p2008
(lp2009
g206
asVdavid amarigio
p2010
(lp2011
g37
aS'david leeds'
p2012
asS'william wolff'
p2013
(lp2014
g103
asS'sara geyer'
p2015
(lp2016
g3
asS'robert sloan'
p2017
(lp2018
g51
asS'lucy warren'
p2019
(lp2020
g3
ag172
asS'ethel claibourne'
p2021
(lp2022
Vmrs. sidney clai
p2023
ag22
asS'morton grant'
p2024
(lp2025
g62
ag63
ag53
asS'harold oakerly'
p2026
(lp2027
g141
asS'matilda lewis'
p2028
(lp2029
g10
ag22
ag14
ag108
asS'david jenkins'
p2030
(lp2031
g339
ag141
asS'rose dreyfus'
p2032
(lp2033
g3
asS'john matsuto'
p2034
(lp2035
g14
asS'jean lees'
p2036
(lp2037
g48
ag79
ag121
asS'milton henry'
p2038
(lp2039
g14
asS'wilma shore'
p2040
(lp2041
g62
asS'abraham maymadus'
p2042
(lp2043
g14
asS'jack chassen'
p2044
(lp2045
g3
asS'morris karson'
p2046
(lp2047
g3
asVmary charles d. blodgett
p2048
(lp2049
g172
asS'albert legard'
p2050
(lp2051
g22
asS'nell higman'
p2052
(lp2053
g111
asS'sanford bernstein'
p2054
(lp2055
g3
asS'georgia burns'
p2056
(lp2057
g51
asS'morris zuckman'
p2058
(lp2059
g32
ag33
asS'harry gilder'
p2060
(lp2061
g3
asS'carl foreman'
p2062
(lp2063
g62
ag79
ag499
asS'norman canright'
p2064
(lp2065
g22
asS'cookie wexley'
p2066
(lp2067
g172
asS'george stathis'
p2068
(lp2069
g76
ag32
asS'victor killian'
p2070
(lp2071
g165
ag187
asS'paul schlipf'
p2072
(lp2073
g22
asS'clara walden'
p2074
(lp2075
g172
asS'mildred grossman'
p2076
(lp2077
g19
asS'catherine vandercar'
p2078
(lp2079
g79
asS'laurie blankfort'
p2080
(lp2081
g62
asg2012
(lp2082
g2010
asS'gordon williams'
p2083
(lp2084
g48
ag22
asS'nina ingham'
p2085
(lp2086
g14
asS'ida pratt'
p2087
(lp2088
g3
asS'margaret e. forsyth'
p2089
(lp2090
g261
asS'louise. todd'
p2091
(lp2092
g48
ag22
ag14
asS'john bright'
p2093
(lp2094
g51
ag63
ag86
ag76
ag62
ag2093
ag32
ag54
ag33
asg1527
(lp2095
sS'rena dodd'
p2096
(lp2097
g32
ag86
ag33
asS'maurice clark'
p2098
(lp2099
g62
ag531
ag63
ag499
asS'elliott sullivan'
p2100
(lp2101
g165
ag57
asS'kenneth arnold'
p2102
(lp2103
g26
asS'helen samuels'
p2104
(lp2105
g3
asVn. y.
p2106
(lp2107
Vwilliam ted isiartin
p2108
ag103
ag48
ag26
ag91
ag22
ag111
ag611
ag235
ag14
ag206
ag362
ag538
ag1568
asS'carroll barnes'
p2109
(lp2110
g48
asVmargaret und
p2111
(lp2112
g432
as.